ARM GAS  /tmp/ccFEO8gf.s 			page 1


   1              		.cpu cortex-m3
   2              		.eabi_attribute 20, 1
   3              		.eabi_attribute 21, 1
   4              		.eabi_attribute 23, 3
   5              		.eabi_attribute 24, 1
   6              		.eabi_attribute 25, 1
   7              		.eabi_attribute 26, 1
   8              		.eabi_attribute 30, 1
   9              		.eabi_attribute 34, 1
  10              		.eabi_attribute 18, 4
  11              		.file	"gpio.c"
  12              		.text
  13              	.Ltext0:
  14              		.cfi_sections	.debug_frame
  15              		.section	.text.init_gpio,"ax",%progbits
  16              		.align	1
  17              		.global	init_gpio
  18              		.syntax unified
  19              		.thumb
  20              		.thumb_func
  21              		.fpu softvfp
  23              	init_gpio:
  24              	.LFB66:
  25              		.file 1 "Drivers/nlib/gpio.c"
   1:Drivers/nlib/gpio.c **** #include "gpio.h"
   2:Drivers/nlib/gpio.c **** 
   3:Drivers/nlib/gpio.c **** void init_gpio( GPIO_TypeDef * port, u8 n, u8 mode )
   4:Drivers/nlib/gpio.c **** {
  26              		.loc 1 4 0
  27              		.cfi_startproc
  28              		@ args = 0, pretend = 0, frame = 0
  29              		@ frame_needed = 0, uses_anonymous_args = 0
  30              		@ link register save eliminated.
  31              	.LVL0:
   5:Drivers/nlib/gpio.c **** 	// if( mode == INPUT_PULL_UP ){
   6:Drivers/nlib/gpio.c **** 	// 	port->BSRR |= (1 << n);
   7:Drivers/nlib/gpio.c **** 	// }
   8:Drivers/nlib/gpio.c **** 	// if( mode == INPUT_PULL_DN ){
   9:Drivers/nlib/gpio.c **** 	// 	port->BSRR |= (1 << (n + 16));
  10:Drivers/nlib/gpio.c **** 	// }
  11:Drivers/nlib/gpio.c **** 	// if (n > 7){
  12:Drivers/nlib/gpio.c **** 	// 	n -= 8;
  13:Drivers/nlib/gpio.c **** 	// 	port->CRH &= ~( 0x0F << (4 * n));
  14:Drivers/nlib/gpio.c **** 	// 	port->CRH |= ( 0x0F & mode ) << (4 * n);
  15:Drivers/nlib/gpio.c **** 	// }
  16:Drivers/nlib/gpio.c **** 	// else{
  17:Drivers/nlib/gpio.c **** 	// 	port->CRL &= ~( 0x0F << (4 * n));
  18:Drivers/nlib/gpio.c **** 	// 	port->CRL |= ( 0x0F & mode ) << (4 * n);
  19:Drivers/nlib/gpio.c **** 	// }
  20:Drivers/nlib/gpio.c **** 
  21:Drivers/nlib/gpio.c **** 	
  22:Drivers/nlib/gpio.c **** }
  32              		.loc 1 22 0
  33 0000 7047     		bx	lr
  34              		.cfi_endproc
  35              	.LFE66:
  37              		.section	.text.set_gpio,"ax",%progbits
ARM GAS  /tmp/ccFEO8gf.s 			page 2


  38              		.align	1
  39              		.global	set_gpio
  40              		.syntax unified
  41              		.thumb
  42              		.thumb_func
  43              		.fpu softvfp
  45              	set_gpio:
  46              	.LFB67:
  23:Drivers/nlib/gpio.c **** 
  24:Drivers/nlib/gpio.c **** void set_gpio( GPIO_TypeDef * port, u8 n, u8 value )
  25:Drivers/nlib/gpio.c **** {
  47              		.loc 1 25 0
  48              		.cfi_startproc
  49              		@ args = 0, pretend = 0, frame = 0
  50              		@ frame_needed = 0, uses_anonymous_args = 0
  51              		@ link register save eliminated.
  52              	.LVL1:
  26:Drivers/nlib/gpio.c **** 	if(value){
  53              		.loc 1 26 0
  54 0000 3AB9     		cbnz	r2, .L5
  27:Drivers/nlib/gpio.c **** 		port->BSRR |= (1 << n);
  28:Drivers/nlib/gpio.c **** 	}
  29:Drivers/nlib/gpio.c **** 	else{
  30:Drivers/nlib/gpio.c **** 		port->BSRR |= (1 << (n + 16));
  55              		.loc 1 30 0
  56 0002 8369     		ldr	r3, [r0, #24]
  57 0004 1031     		adds	r1, r1, #16
  58              	.LVL2:
  59 0006 0122     		movs	r2, #1
  60              	.LVL3:
  61 0008 02FA01F1 		lsl	r1, r2, r1
  62 000c 1943     		orrs	r1, r1, r3
  63 000e 8161     		str	r1, [r0, #24]
  31:Drivers/nlib/gpio.c **** 	}
  32:Drivers/nlib/gpio.c **** }
  64              		.loc 1 32 0
  65 0010 7047     		bx	lr
  66              	.LVL4:
  67              	.L5:
  27:Drivers/nlib/gpio.c **** 		port->BSRR |= (1 << n);
  68              		.loc 1 27 0
  69 0012 8369     		ldr	r3, [r0, #24]
  70 0014 0122     		movs	r2, #1
  71              	.LVL5:
  72 0016 02FA01F1 		lsl	r1, r2, r1
  73              	.LVL6:
  74 001a 1943     		orrs	r1, r1, r3
  75 001c 8161     		str	r1, [r0, #24]
  76 001e 7047     		bx	lr
  77              		.cfi_endproc
  78              	.LFE67:
  80              		.section	.text.get_gpio,"ax",%progbits
  81              		.align	1
  82              		.global	get_gpio
  83              		.syntax unified
  84              		.thumb
  85              		.thumb_func
ARM GAS  /tmp/ccFEO8gf.s 			page 3


  86              		.fpu softvfp
  88              	get_gpio:
  89              	.LFB68:
  33:Drivers/nlib/gpio.c **** 
  34:Drivers/nlib/gpio.c **** u32 get_gpio ( GPIO_TypeDef * port)
  35:Drivers/nlib/gpio.c **** {
  90              		.loc 1 35 0
  91              		.cfi_startproc
  92              		@ args = 0, pretend = 0, frame = 0
  93              		@ frame_needed = 0, uses_anonymous_args = 0
  94              		@ link register save eliminated.
  95              	.LVL7:
  36:Drivers/nlib/gpio.c **** 	return port->IDR;
  96              		.loc 1 36 0
  97 0000 0069     		ldr	r0, [r0, #16]
  98              	.LVL8:
  37:Drivers/nlib/gpio.c **** }
  99              		.loc 1 37 0
 100 0002 7047     		bx	lr
 101              		.cfi_endproc
 102              	.LFE68:
 104              		.text
 105              	.Letext0:
 106              		.file 2 "/home/nikita/software/gcc-arm-none-eabi-7-2018-q2-update/arm-none-eabi/include/machine/_d
 107              		.file 3 "/home/nikita/software/gcc-arm-none-eabi-7-2018-q2-update/arm-none-eabi/include/sys/_stdin
 108              		.file 4 "Drivers/CMSIS/Include/core_cm3.h"
 109              		.file 5 "Drivers/CMSIS/Device/ST/STM32F2xx/Include/system_stm32f2xx.h"
 110              		.file 6 "Drivers/CMSIS/Device/ST/STM32F2xx/Include/stm32f205xx.h"
 111              		.file 7 "/home/nikita/software/gcc-arm-none-eabi-7-2018-q2-update/arm-none-eabi/include/sys/lock.h
 112              		.file 8 "/home/nikita/software/gcc-arm-none-eabi-7-2018-q2-update/arm-none-eabi/include/sys/_types
 113              		.file 9 "/home/nikita/software/gcc-arm-none-eabi-7-2018-q2-update/lib/gcc/arm-none-eabi/7.3.1/incl
 114              		.file 10 "/home/nikita/software/gcc-arm-none-eabi-7-2018-q2-update/arm-none-eabi/include/sys/reent
 115              		.file 11 "Drivers/nlib/core.h"
ARM GAS  /tmp/ccFEO8gf.s 			page 4

