ARM GAS  /tmp/ccVUfa30.s 			page 1


   1              		.cpu cortex-m3
   2              		.eabi_attribute 20, 1
   3              		.eabi_attribute 21, 1
   4              		.eabi_attribute 23, 3
   5              		.eabi_attribute 24, 1
   6              		.eabi_attribute 25, 1
   7              		.eabi_attribute 26, 1
   8              		.eabi_attribute 30, 1
   9              		.eabi_attribute 34, 1
  10              		.eabi_attribute 18, 4
  11              		.file	"print.c"
  12              		.text
  13              	.Ltext0:
  14              		.cfi_sections	.debug_frame
  15              		.section	.text.print,"ax",%progbits
  16              		.align	1
  17              		.global	print
  18              		.syntax unified
  19              		.thumb
  20              		.thumb_func
  21              		.fpu softvfp
  23              	print:
  24              	.LFB66:
  25              		.file 1 "Drivers/nlib/print.c"
   1:Drivers/nlib/print.c **** #include "print.h"
   2:Drivers/nlib/print.c **** 
   3:Drivers/nlib/print.c **** void print(char *str, void (*write)(char c))
   4:Drivers/nlib/print.c **** {
  26              		.loc 1 4 0
  27              		.cfi_startproc
  28              		@ args = 0, pretend = 0, frame = 0
  29              		@ frame_needed = 0, uses_anonymous_args = 0
  30              	.LVL0:
  31 0000 38B5     		push	{r3, r4, r5, lr}
  32              	.LCFI0:
  33              		.cfi_def_cfa_offset 16
  34              		.cfi_offset 3, -16
  35              		.cfi_offset 4, -12
  36              		.cfi_offset 5, -8
  37              		.cfi_offset 14, -4
  38 0002 0446     		mov	r4, r0
  39 0004 0D46     		mov	r5, r1
   5:Drivers/nlib/print.c **** 	while (*str != 0)
  40              		.loc 1 5 0
  41 0006 01E0     		b	.L2
  42              	.LVL1:
  43              	.L3:
   6:Drivers/nlib/print.c **** 	{
   7:Drivers/nlib/print.c **** 		write(*str++);
  44              		.loc 1 7 0
  45 0008 0134     		adds	r4, r4, #1
  46              	.LVL2:
  47 000a A847     		blx	r5
  48              	.LVL3:
  49              	.L2:
   5:Drivers/nlib/print.c **** 	while (*str != 0)
  50              		.loc 1 5 0
ARM GAS  /tmp/ccVUfa30.s 			page 2


  51 000c 2078     		ldrb	r0, [r4]	@ zero_extendqisi2
  52 000e 0028     		cmp	r0, #0
  53 0010 FAD1     		bne	.L3
   8:Drivers/nlib/print.c **** 	}
   9:Drivers/nlib/print.c **** }
  54              		.loc 1 9 0
  55 0012 38BD     		pop	{r3, r4, r5, pc}
  56              		.cfi_endproc
  57              	.LFE66:
  59              		.section	.text.print_hex,"ax",%progbits
  60              		.align	1
  61              		.global	print_hex
  62              		.syntax unified
  63              		.thumb
  64              		.thumb_func
  65              		.fpu softvfp
  67              	print_hex:
  68              	.LFB67:
  10:Drivers/nlib/print.c **** 
  11:Drivers/nlib/print.c **** static const char hexvalues[] = "0123456789ABCDEF";
  12:Drivers/nlib/print.c **** 
  13:Drivers/nlib/print.c **** void print_hex(u8 *ptr, u8 len, void (*write)(char c))
  14:Drivers/nlib/print.c **** {
  69              		.loc 1 14 0
  70              		.cfi_startproc
  71              		@ args = 0, pretend = 0, frame = 0
  72              		@ frame_needed = 0, uses_anonymous_args = 0
  73              	.LVL4:
  74 0000 F8B5     		push	{r3, r4, r5, r6, r7, lr}
  75              	.LCFI1:
  76              		.cfi_def_cfa_offset 24
  77              		.cfi_offset 3, -24
  78              		.cfi_offset 4, -20
  79              		.cfi_offset 5, -16
  80              		.cfi_offset 6, -12
  81              		.cfi_offset 7, -8
  82              		.cfi_offset 14, -4
  83 0002 0646     		mov	r6, r0
  84 0004 1546     		mov	r5, r2
  15:Drivers/nlib/print.c **** 	while (len--)
  85              		.loc 1 15 0
  86 0006 0AE0     		b	.L6
  87              	.LVL5:
  88              	.L7:
  16:Drivers/nlib/print.c **** 	{
  17:Drivers/nlib/print.c **** 		write(hexvalues[(*(ptr + len) >> 4) & 0x0F]);
  89              		.loc 1 17 0
  90 0008 335D     		ldrb	r3, [r6, r4]	@ zero_extendqisi2
  91 000a 1B09     		lsrs	r3, r3, #4
  92 000c 064F     		ldr	r7, .L9
  93 000e F85C     		ldrb	r0, [r7, r3]	@ zero_extendqisi2
  94 0010 A847     		blx	r5
  95              	.LVL6:
  18:Drivers/nlib/print.c **** 		write(hexvalues[*(ptr + len) & 0x0F]);
  96              		.loc 1 18 0
  97 0012 335D     		ldrb	r3, [r6, r4]	@ zero_extendqisi2
  98 0014 03F00F03 		and	r3, r3, #15
ARM GAS  /tmp/ccVUfa30.s 			page 3


  99 0018 F85C     		ldrb	r0, [r7, r3]	@ zero_extendqisi2
 100 001a A847     		blx	r5
 101              	.LVL7:
  15:Drivers/nlib/print.c **** 	while (len--)
 102              		.loc 1 15 0
 103 001c 2146     		mov	r1, r4
 104              	.LVL8:
 105              	.L6:
 106 001e 4C1E     		subs	r4, r1, #1
 107 0020 E4B2     		uxtb	r4, r4
 108              	.LVL9:
 109 0022 0029     		cmp	r1, #0
 110 0024 F0D1     		bne	.L7
  19:Drivers/nlib/print.c **** 	}
  20:Drivers/nlib/print.c **** }
 111              		.loc 1 20 0
 112 0026 F8BD     		pop	{r3, r4, r5, r6, r7, pc}
 113              	.LVL10:
 114              	.L10:
 115              		.align	2
 116              	.L9:
 117 0028 00000000 		.word	.LANCHOR0
 118              		.cfi_endproc
 119              	.LFE67:
 121              		.section	.text.print_hb,"ax",%progbits
 122              		.align	1
 123              		.global	print_hb
 124              		.syntax unified
 125              		.thumb
 126              		.thumb_func
 127              		.fpu softvfp
 129              	print_hb:
 130              	.LFB68:
  21:Drivers/nlib/print.c **** 
  22:Drivers/nlib/print.c **** void print_hb(u8 *ptr, u8 grp, u8 len, u8 inl, void (*write)(char c))
  23:Drivers/nlib/print.c **** {
 131              		.loc 1 23 0
 132              		.cfi_startproc
 133              		@ args = 4, pretend = 0, frame = 0
 134              		@ frame_needed = 0, uses_anonymous_args = 0
 135              	.LVL11:
 136 0000 2DE9F843 		push	{r3, r4, r5, r6, r7, r8, r9, lr}
 137              	.LCFI2:
 138              		.cfi_def_cfa_offset 32
 139              		.cfi_offset 3, -32
 140              		.cfi_offset 4, -28
 141              		.cfi_offset 5, -24
 142              		.cfi_offset 6, -20
 143              		.cfi_offset 7, -16
 144              		.cfi_offset 8, -12
 145              		.cfi_offset 9, -8
 146              		.cfi_offset 14, -4
 147 0004 8146     		mov	r9, r0
 148 0006 0E46     		mov	r6, r1
 149 0008 9046     		mov	r8, r2
 150 000a 1F46     		mov	r7, r3
 151 000c 089D     		ldr	r5, [sp, #32]
ARM GAS  /tmp/ccVUfa30.s 			page 4


 152              	.LVL12:
 153              	.LBB2:
  24:Drivers/nlib/print.c **** 	for (u8 i = 0; i < len; i++)
 154              		.loc 1 24 0
 155 000e 0024     		movs	r4, #0
 156 0010 03E0     		b	.L12
 157              	.LVL13:
 158              	.L13:
  25:Drivers/nlib/print.c **** 	{
  26:Drivers/nlib/print.c **** 		print_hex(ptr + grp * i, grp, write);
  27:Drivers/nlib/print.c **** 		if ((inl != 0) && ((i % inl) == (inl - 1)))
  28:Drivers/nlib/print.c **** 		{
  29:Drivers/nlib/print.c **** 			write('\r');
  30:Drivers/nlib/print.c **** 			write('\n');
  31:Drivers/nlib/print.c **** 		}
  32:Drivers/nlib/print.c **** 		else
  33:Drivers/nlib/print.c **** 		{
  34:Drivers/nlib/print.c **** 			write(' ');
 159              		.loc 1 34 0
 160 0012 2020     		movs	r0, #32
 161 0014 A847     		blx	r5
 162              	.LVL14:
 163              	.L14:
  24:Drivers/nlib/print.c **** 	for (u8 i = 0; i < len; i++)
 164              		.loc 1 24 0 discriminator 2
 165 0016 0134     		adds	r4, r4, #1
 166              	.LVL15:
 167 0018 E4B2     		uxtb	r4, r4
 168              	.LVL16:
 169              	.L12:
  24:Drivers/nlib/print.c **** 	for (u8 i = 0; i < len; i++)
 170              		.loc 1 24 0 is_stmt 0 discriminator 1
 171 001a 4445     		cmp	r4, r8
 172 001c 14D2     		bcs	.L17
  26:Drivers/nlib/print.c **** 		if ((inl != 0) && ((i % inl) == (inl - 1)))
 173              		.loc 1 26 0 is_stmt 1
 174 001e 2A46     		mov	r2, r5
 175 0020 3146     		mov	r1, r6
 176 0022 04FB0690 		mla	r0, r4, r6, r9
 177 0026 FFF7FEFF 		bl	print_hex
 178              	.LVL17:
  27:Drivers/nlib/print.c **** 		{
 179              		.loc 1 27 0
 180 002a 002F     		cmp	r7, #0
 181 002c F1D0     		beq	.L13
  27:Drivers/nlib/print.c **** 		{
 182              		.loc 1 27 0 is_stmt 0 discriminator 1
 183 002e B4FBF7F3 		udiv	r3, r4, r7
 184 0032 07FB1343 		mls	r3, r7, r3, r4
 185 0036 DBB2     		uxtb	r3, r3
 186 0038 7A1E     		subs	r2, r7, #1
 187 003a 9342     		cmp	r3, r2
 188 003c E9D1     		bne	.L13
  29:Drivers/nlib/print.c **** 			write('\n');
 189              		.loc 1 29 0 is_stmt 1
 190 003e 0D20     		movs	r0, #13
 191 0040 A847     		blx	r5
ARM GAS  /tmp/ccVUfa30.s 			page 5


 192              	.LVL18:
  30:Drivers/nlib/print.c **** 		}
 193              		.loc 1 30 0
 194 0042 0A20     		movs	r0, #10
 195 0044 A847     		blx	r5
 196              	.LVL19:
 197 0046 E6E7     		b	.L14
 198              	.L17:
 199              	.LBE2:
  35:Drivers/nlib/print.c **** 		}
  36:Drivers/nlib/print.c **** 	}
  37:Drivers/nlib/print.c **** }
 200              		.loc 1 37 0
 201 0048 BDE8F883 		pop	{r3, r4, r5, r6, r7, r8, r9, pc}
 202              		.cfi_endproc
 203              	.LFE68:
 205              		.section	.text.print_field,"ax",%progbits
 206              		.align	1
 207              		.global	print_field
 208              		.syntax unified
 209              		.thumb
 210              		.thumb_func
 211              		.fpu softvfp
 213              	print_field:
 214              	.LFB69:
  38:Drivers/nlib/print.c **** 
  39:Drivers/nlib/print.c **** void print_field(char* str, u32 width, void (*write)(char c))
  40:Drivers/nlib/print.c **** {
 215              		.loc 1 40 0
 216              		.cfi_startproc
 217              		@ args = 0, pretend = 0, frame = 0
 218              		@ frame_needed = 0, uses_anonymous_args = 0
 219              	.LVL20:
 220 0000 F8B5     		push	{r3, r4, r5, r6, r7, lr}
 221              	.LCFI3:
 222              		.cfi_def_cfa_offset 24
 223              		.cfi_offset 3, -24
 224              		.cfi_offset 4, -20
 225              		.cfi_offset 5, -16
 226              		.cfi_offset 6, -12
 227              		.cfi_offset 7, -8
 228              		.cfi_offset 14, -4
 229 0002 0546     		mov	r5, r0
 230 0004 1646     		mov	r6, r2
 231              	.LVL21:
  41:Drivers/nlib/print.c **** 	u32 dec = 1;
  42:Drivers/nlib/print.c **** 	if(width == 0){
 232              		.loc 1 42 0
 233 0006 0F46     		mov	r7, r1
 234 0008 59B1     		cbz	r1, .L27
 235 000a 0C46     		mov	r4, r1
  41:Drivers/nlib/print.c **** 	u32 dec = 1;
 236              		.loc 1 41 0
 237 000c 0127     		movs	r7, #1
 238 000e 02E0     		b	.L21
 239              	.LVL22:
 240              	.L23:
ARM GAS  /tmp/ccVUfa30.s 			page 6


  43:Drivers/nlib/print.c **** 		width = 1;
  44:Drivers/nlib/print.c **** 		dec = 0;
  45:Drivers/nlib/print.c **** 	}
  46:Drivers/nlib/print.c **** 	while((*str != 0) && (width != 0)){
  47:Drivers/nlib/print.c **** 		write(*str++);
 241              		.loc 1 47 0
 242 0010 0135     		adds	r5, r5, #1
 243              	.LVL23:
 244 0012 B047     		blx	r6
 245              	.LVL24:
  48:Drivers/nlib/print.c **** 		width -= dec;
 246              		.loc 1 48 0
 247 0014 E41B     		subs	r4, r4, r7
 248              	.LVL25:
 249              	.L21:
  46:Drivers/nlib/print.c **** 		write(*str++);
 250              		.loc 1 46 0
 251 0016 2878     		ldrb	r0, [r5]	@ zero_extendqisi2
 252 0018 08B1     		cbz	r0, .L22
  46:Drivers/nlib/print.c **** 		write(*str++);
 253              		.loc 1 46 0 is_stmt 0 discriminator 1
 254 001a 002C     		cmp	r4, #0
 255 001c F8D1     		bne	.L23
 256              	.L22:
  49:Drivers/nlib/print.c **** 	}
  50:Drivers/nlib/print.c **** 	if(dec != 0){
 257              		.loc 1 50 0 is_stmt 1
 258 001e 2FB9     		cbnz	r7, .L24
 259 0020 06E0     		b	.L18
 260              	.LVL26:
 261              	.L27:
  43:Drivers/nlib/print.c **** 		dec = 0;
 262              		.loc 1 43 0
 263 0022 0124     		movs	r4, #1
 264 0024 F7E7     		b	.L21
 265              	.LVL27:
 266              	.L26:
  51:Drivers/nlib/print.c **** 		while(width != 0){
  52:Drivers/nlib/print.c **** 			write(' ');
 267              		.loc 1 52 0
 268 0026 2020     		movs	r0, #32
 269 0028 B047     		blx	r6
 270              	.LVL28:
  53:Drivers/nlib/print.c **** 			width--;
 271              		.loc 1 53 0
 272 002a 013C     		subs	r4, r4, #1
 273              	.LVL29:
 274              	.L24:
  51:Drivers/nlib/print.c **** 		while(width != 0){
 275              		.loc 1 51 0
 276 002c 002C     		cmp	r4, #0
 277 002e FAD1     		bne	.L26
 278              	.L18:
  54:Drivers/nlib/print.c **** 		}
  55:Drivers/nlib/print.c **** 	}
  56:Drivers/nlib/print.c **** }
 279              		.loc 1 56 0
ARM GAS  /tmp/ccVUfa30.s 			page 7


 280 0030 F8BD     		pop	{r3, r4, r5, r6, r7, pc}
 281              		.cfi_endproc
 282              	.LFE69:
 284              		.section	.text.printDEC,"ax",%progbits
 285              		.align	1
 286              		.global	printDEC
 287              		.syntax unified
 288              		.thumb
 289              		.thumb_func
 290              		.fpu softvfp
 292              	printDEC:
 293              	.LFB70:
  57:Drivers/nlib/print.c **** 
  58:Drivers/nlib/print.c **** void printDEC(u32 value, u8 width, void (*write)(char c))
  59:Drivers/nlib/print.c **** {
 294              		.loc 1 59 0
 295              		.cfi_startproc
 296              		@ args = 0, pretend = 0, frame = 0
 297              		@ frame_needed = 0, uses_anonymous_args = 0
 298              	.LVL30:
 299 0000 2DE9F041 		push	{r4, r5, r6, r7, r8, lr}
 300              	.LCFI4:
 301              		.cfi_def_cfa_offset 24
 302              		.cfi_offset 4, -24
 303              		.cfi_offset 5, -20
 304              		.cfi_offset 6, -16
 305              		.cfi_offset 7, -12
 306              		.cfi_offset 8, -8
 307              		.cfi_offset 14, -4
 308 0004 0746     		mov	r7, r0
 309 0006 0C46     		mov	r4, r1
 310 0008 9046     		mov	r8, r2
 311              	.LVL31:
  60:Drivers/nlib/print.c **** 	u32 devider = 1;
  61:Drivers/nlib/print.c **** 	u32 digit;
  62:Drivers/nlib/print.c **** 	u8 dn = 1;
  63:Drivers/nlib/print.c **** 
  64:Drivers/nlib/print.c **** 	if(value > 1000000000){
 312              		.loc 1 64 0
 313 000a 174B     		ldr	r3, .L44
 314 000c 9842     		cmp	r0, r3
 315 000e 13D8     		bhi	.L40
  62:Drivers/nlib/print.c **** 
 316              		.loc 1 62 0
 317 0010 0126     		movs	r6, #1
  60:Drivers/nlib/print.c **** 	u32 devider = 1;
 318              		.loc 1 60 0
 319 0012 3546     		mov	r5, r6
 320 0014 02E0     		b	.L32
 321              	.LVL32:
 322              	.L33:
  65:Drivers/nlib/print.c **** 		devider = 1000000000;
  66:Drivers/nlib/print.c **** 		dn = 10;
  67:Drivers/nlib/print.c **** 	}
  68:Drivers/nlib/print.c **** 	else{
  69:Drivers/nlib/print.c **** 		while ((devider * 10) <= value){
  70:Drivers/nlib/print.c **** 			devider = devider * 10;
ARM GAS  /tmp/ccVUfa30.s 			page 8


  71:Drivers/nlib/print.c **** 			dn++;
 323              		.loc 1 71 0
 324 0016 0136     		adds	r6, r6, #1
 325              	.LVL33:
 326 0018 F6B2     		uxtb	r6, r6
 327              	.LVL34:
  70:Drivers/nlib/print.c **** 			dn++;
 328              		.loc 1 70 0
 329 001a 1D46     		mov	r5, r3
 330              	.LVL35:
 331              	.L32:
  69:Drivers/nlib/print.c **** 			devider = devider * 10;
 332              		.loc 1 69 0
 333 001c 05EB8502 		add	r2, r5, r5, lsl #2
 334 0020 5300     		lsls	r3, r2, #1
 335 0022 BB42     		cmp	r3, r7
 336 0024 F7D9     		bls	.L33
 337              	.LVL36:
 338              	.L31:
  72:Drivers/nlib/print.c **** 		}
  73:Drivers/nlib/print.c **** 	}
  74:Drivers/nlib/print.c **** 
  75:Drivers/nlib/print.c **** 	if(width == 0){
 339              		.loc 1 75 0
 340 0026 04B9     		cbnz	r4, .L34
  76:Drivers/nlib/print.c **** 		width = dn;
 341              		.loc 1 76 0
 342 0028 3446     		mov	r4, r6
 343              	.L34:
 344              	.LVL37:
  77:Drivers/nlib/print.c **** 	}
  78:Drivers/nlib/print.c **** 
  79:Drivers/nlib/print.c **** 	if(width < dn){
 345              		.loc 1 79 0
 346 002a B442     		cmp	r4, r6
 347 002c 14D2     		bcs	.L36
  80:Drivers/nlib/print.c **** 		write('@');
 348              		.loc 1 80 0
 349 002e 4020     		movs	r0, #64
 350              	.LVL38:
 351 0030 C047     		blx	r8
 352              	.LVL39:
  81:Drivers/nlib/print.c **** 		width--;
 353              		.loc 1 81 0
 354 0032 013C     		subs	r4, r4, #1
 355              	.LVL40:
 356 0034 E4B2     		uxtb	r4, r4
 357              	.LVL41:
 358 0036 0FE0     		b	.L36
 359              	.LVL42:
 360              	.L40:
  66:Drivers/nlib/print.c **** 	}
 361              		.loc 1 66 0
 362 0038 0A26     		movs	r6, #10
  65:Drivers/nlib/print.c **** 		dn = 10;
 363              		.loc 1 65 0
 364 003a 0B4D     		ldr	r5, .L44
ARM GAS  /tmp/ccVUfa30.s 			page 9


 365 003c F3E7     		b	.L31
 366              	.LVL43:
 367              	.L37:
  82:Drivers/nlib/print.c **** 	}
  83:Drivers/nlib/print.c **** 
  84:Drivers/nlib/print.c **** 	while(width){
  85:Drivers/nlib/print.c **** 		if(width > dn){
  86:Drivers/nlib/print.c **** 			write(' ');
  87:Drivers/nlib/print.c **** 		}
  88:Drivers/nlib/print.c **** 		else{
  89:Drivers/nlib/print.c **** 			digit = value / devider;
 368              		.loc 1 89 0
 369 003e B7FBF5F0 		udiv	r0, r7, r5
 370              	.LVL44:
  90:Drivers/nlib/print.c **** 			value = value % devider;
 371              		.loc 1 90 0
 372 0042 05FB1077 		mls	r7, r5, r0, r7
 373              	.LVL45:
  91:Drivers/nlib/print.c **** 			devider = devider / 10;
 374              		.loc 1 91 0
 375 0046 094B     		ldr	r3, .L44+4
 376 0048 A3FB0535 		umull	r3, r5, r3, r5
 377              	.LVL46:
 378 004c ED08     		lsrs	r5, r5, #3
 379              	.LVL47:
  92:Drivers/nlib/print.c **** 			write('0' + digit);
 380              		.loc 1 92 0
 381 004e 3030     		adds	r0, r0, #48
 382              	.LVL48:
 383 0050 C0B2     		uxtb	r0, r0
 384              	.LVL49:
 385 0052 C047     		blx	r8
 386              	.LVL50:
 387              	.L38:
  93:Drivers/nlib/print.c **** 		}
  94:Drivers/nlib/print.c **** 		width--;
 388              		.loc 1 94 0
 389 0054 013C     		subs	r4, r4, #1
 390              	.LVL51:
 391 0056 E4B2     		uxtb	r4, r4
 392              	.LVL52:
 393              	.L36:
  84:Drivers/nlib/print.c **** 		if(width > dn){
 394              		.loc 1 84 0
 395 0058 24B1     		cbz	r4, .L43
  85:Drivers/nlib/print.c **** 			write(' ');
 396              		.loc 1 85 0
 397 005a B442     		cmp	r4, r6
 398 005c EFD9     		bls	.L37
  86:Drivers/nlib/print.c **** 		}
 399              		.loc 1 86 0
 400 005e 2020     		movs	r0, #32
 401 0060 C047     		blx	r8
 402              	.LVL53:
 403 0062 F7E7     		b	.L38
 404              	.L43:
  95:Drivers/nlib/print.c **** 	}
ARM GAS  /tmp/ccVUfa30.s 			page 10


  96:Drivers/nlib/print.c **** }...
 405              		.loc 1 96 0
 406 0064 BDE8F081 		pop	{r4, r5, r6, r7, r8, pc}
 407              	.LVL54:
 408              	.L45:
 409              		.align	2
 410              	.L44:
 411 0068 00CA9A3B 		.word	1000000000
 412 006c CDCCCCCC 		.word	-858993459
 413              		.cfi_endproc
 414              	.LFE70:
 416              		.section	.rodata.hexvalues,"a",%progbits
 417              		.align	2
 418              		.set	.LANCHOR0,. + 0
 421              	hexvalues:
 422 0000 30313233 		.ascii	"0123456789ABCDEF\000"
 422      34353637 
 422      38394142 
 422      43444546 
 422      00
 423              		.text
 424              	.Letext0:
 425              		.file 2 "/home/nikita/software/gcc-arm-none-eabi-7-2018-q2-update/arm-none-eabi/include/machine/_d
 426              		.file 3 "/home/nikita/software/gcc-arm-none-eabi-7-2018-q2-update/arm-none-eabi/include/sys/_stdin
 427              		.file 4 "Drivers/CMSIS/Include/core_cm3.h"
 428              		.file 5 "Drivers/CMSIS/Device/ST/STM32F2xx/Include/system_stm32f2xx.h"
 429              		.file 6 "/home/nikita/software/gcc-arm-none-eabi-7-2018-q2-update/arm-none-eabi/include/sys/lock.h
 430              		.file 7 "/home/nikita/software/gcc-arm-none-eabi-7-2018-q2-update/arm-none-eabi/include/sys/_types
 431              		.file 8 "/home/nikita/software/gcc-arm-none-eabi-7-2018-q2-update/lib/gcc/arm-none-eabi/7.3.1/incl
 432              		.file 9 "/home/nikita/software/gcc-arm-none-eabi-7-2018-q2-update/arm-none-eabi/include/sys/reent.
 433              		.file 10 "Drivers/nlib/core.h"
ARM GAS  /tmp/ccVUfa30.s 			page 11

