ARM GAS  /tmp/ccCndbbD.s 			page 1


   1              		.cpu cortex-m3
   2              		.eabi_attribute 20, 1
   3              		.eabi_attribute 21, 1
   4              		.eabi_attribute 23, 3
   5              		.eabi_attribute 24, 1
   6              		.eabi_attribute 25, 1
   7              		.eabi_attribute 26, 1
   8              		.eabi_attribute 30, 1
   9              		.eabi_attribute 34, 1
  10              		.eabi_attribute 18, 4
  11              		.file	"stm32f2xx_hal_flash.c"
  12              		.text
  13              	.Ltext0:
  14              		.cfi_sections	.debug_frame
  15              		.section	.text.FLASH_Program_DoubleWord,"ax",%progbits
  16              		.align	1
  17              		.syntax unified
  18              		.thumb
  19              		.thumb_func
  20              		.fpu softvfp
  22              	FLASH_Program_DoubleWord:
  23              	.LFB78:
  24              		.file 1 "Drivers/STM32F2xx_HAL_Driver/Src/stm32f2xx_hal_flash.c"
   1:Drivers/STM32F2xx_HAL_Driver/Src/stm32f2xx_hal_flash.c **** /**
   2:Drivers/STM32F2xx_HAL_Driver/Src/stm32f2xx_hal_flash.c ****   ******************************************************************************
   3:Drivers/STM32F2xx_HAL_Driver/Src/stm32f2xx_hal_flash.c ****   * @file    stm32f2xx_hal_flash.c
   4:Drivers/STM32F2xx_HAL_Driver/Src/stm32f2xx_hal_flash.c ****   * @author  MCD Application Team
   5:Drivers/STM32F2xx_HAL_Driver/Src/stm32f2xx_hal_flash.c ****   * @brief   FLASH HAL module driver.
   6:Drivers/STM32F2xx_HAL_Driver/Src/stm32f2xx_hal_flash.c ****   *          This file provides firmware functions to manage the following 
   7:Drivers/STM32F2xx_HAL_Driver/Src/stm32f2xx_hal_flash.c ****   *          functionalities of the internal FLASH memory:
   8:Drivers/STM32F2xx_HAL_Driver/Src/stm32f2xx_hal_flash.c ****   *           + Program operations functions
   9:Drivers/STM32F2xx_HAL_Driver/Src/stm32f2xx_hal_flash.c ****   *           + Memory Control functions 
  10:Drivers/STM32F2xx_HAL_Driver/Src/stm32f2xx_hal_flash.c ****   *           + Peripheral Errors functions
  11:Drivers/STM32F2xx_HAL_Driver/Src/stm32f2xx_hal_flash.c ****   *         
  12:Drivers/STM32F2xx_HAL_Driver/Src/stm32f2xx_hal_flash.c ****   @verbatim
  13:Drivers/STM32F2xx_HAL_Driver/Src/stm32f2xx_hal_flash.c ****   ==============================================================================
  14:Drivers/STM32F2xx_HAL_Driver/Src/stm32f2xx_hal_flash.c ****                         ##### FLASH peripheral features #####
  15:Drivers/STM32F2xx_HAL_Driver/Src/stm32f2xx_hal_flash.c ****   ==============================================================================
  16:Drivers/STM32F2xx_HAL_Driver/Src/stm32f2xx_hal_flash.c ****            
  17:Drivers/STM32F2xx_HAL_Driver/Src/stm32f2xx_hal_flash.c ****   [..] The Flash memory interface manages CPU AHB I-Code and D-Code accesses 
  18:Drivers/STM32F2xx_HAL_Driver/Src/stm32f2xx_hal_flash.c ****        to the Flash memory. It implements the erase and program Flash memory operations 
  19:Drivers/STM32F2xx_HAL_Driver/Src/stm32f2xx_hal_flash.c ****        and the read and write protection mechanisms.
  20:Drivers/STM32F2xx_HAL_Driver/Src/stm32f2xx_hal_flash.c ****       
  21:Drivers/STM32F2xx_HAL_Driver/Src/stm32f2xx_hal_flash.c ****   [..] The Flash memory interface accelerates code execution with a system of instruction
  22:Drivers/STM32F2xx_HAL_Driver/Src/stm32f2xx_hal_flash.c ****        prefetch and cache lines. 
  23:Drivers/STM32F2xx_HAL_Driver/Src/stm32f2xx_hal_flash.c **** 
  24:Drivers/STM32F2xx_HAL_Driver/Src/stm32f2xx_hal_flash.c ****   [..] The FLASH main features are:
  25:Drivers/STM32F2xx_HAL_Driver/Src/stm32f2xx_hal_flash.c ****       (+) Flash memory read operations
  26:Drivers/STM32F2xx_HAL_Driver/Src/stm32f2xx_hal_flash.c ****       (+) Flash memory program/erase operations
  27:Drivers/STM32F2xx_HAL_Driver/Src/stm32f2xx_hal_flash.c ****       (+) Read / write protections
  28:Drivers/STM32F2xx_HAL_Driver/Src/stm32f2xx_hal_flash.c ****       (+) Prefetch on I-Code
  29:Drivers/STM32F2xx_HAL_Driver/Src/stm32f2xx_hal_flash.c ****       (+) 64 cache lines of 128 bits on I-Code
  30:Drivers/STM32F2xx_HAL_Driver/Src/stm32f2xx_hal_flash.c ****       (+) 8 cache lines of 128 bits on D-Code
  31:Drivers/STM32F2xx_HAL_Driver/Src/stm32f2xx_hal_flash.c ****       
  32:Drivers/STM32F2xx_HAL_Driver/Src/stm32f2xx_hal_flash.c ****       
  33:Drivers/STM32F2xx_HAL_Driver/Src/stm32f2xx_hal_flash.c ****                      ##### How to use this driver #####
  34:Drivers/STM32F2xx_HAL_Driver/Src/stm32f2xx_hal_flash.c ****   ==============================================================================
ARM GAS  /tmp/ccCndbbD.s 			page 2


  35:Drivers/STM32F2xx_HAL_Driver/Src/stm32f2xx_hal_flash.c ****     [..]                             
  36:Drivers/STM32F2xx_HAL_Driver/Src/stm32f2xx_hal_flash.c ****       This driver provides functions and macros to configure and program the FLASH 
  37:Drivers/STM32F2xx_HAL_Driver/Src/stm32f2xx_hal_flash.c ****       memory of all STM32F2xx devices.
  38:Drivers/STM32F2xx_HAL_Driver/Src/stm32f2xx_hal_flash.c ****     
  39:Drivers/STM32F2xx_HAL_Driver/Src/stm32f2xx_hal_flash.c ****       (#) FLASH Memory IO Programming functions: 
  40:Drivers/STM32F2xx_HAL_Driver/Src/stm32f2xx_hal_flash.c ****            (++) Lock and Unlock the FLASH interface using HAL_FLASH_Unlock() and 
  41:Drivers/STM32F2xx_HAL_Driver/Src/stm32f2xx_hal_flash.c ****                 HAL_FLASH_Lock() functions
  42:Drivers/STM32F2xx_HAL_Driver/Src/stm32f2xx_hal_flash.c ****            (++) Program functions: byte, half word, word and double word
  43:Drivers/STM32F2xx_HAL_Driver/Src/stm32f2xx_hal_flash.c ****            (++) There Two modes of programming :
  44:Drivers/STM32F2xx_HAL_Driver/Src/stm32f2xx_hal_flash.c ****             (+++) Polling mode using HAL_FLASH_Program() function
  45:Drivers/STM32F2xx_HAL_Driver/Src/stm32f2xx_hal_flash.c ****             (+++) Interrupt mode using HAL_FLASH_Program_IT() function
  46:Drivers/STM32F2xx_HAL_Driver/Src/stm32f2xx_hal_flash.c ****     
  47:Drivers/STM32F2xx_HAL_Driver/Src/stm32f2xx_hal_flash.c ****       (#) Interrupts and flags management functions : 
  48:Drivers/STM32F2xx_HAL_Driver/Src/stm32f2xx_hal_flash.c ****            (++) Handle FLASH interrupts by calling HAL_FLASH_IRQHandler()
  49:Drivers/STM32F2xx_HAL_Driver/Src/stm32f2xx_hal_flash.c ****            (++) Wait for last FLASH operation according to its status
  50:Drivers/STM32F2xx_HAL_Driver/Src/stm32f2xx_hal_flash.c ****            (++) Get error flag status by calling HAL_SetErrorCode()          
  51:Drivers/STM32F2xx_HAL_Driver/Src/stm32f2xx_hal_flash.c **** 
  52:Drivers/STM32F2xx_HAL_Driver/Src/stm32f2xx_hal_flash.c ****     [..] 
  53:Drivers/STM32F2xx_HAL_Driver/Src/stm32f2xx_hal_flash.c ****       In addition to these functions, this driver includes a set of macros allowing
  54:Drivers/STM32F2xx_HAL_Driver/Src/stm32f2xx_hal_flash.c ****       to handle the following operations:
  55:Drivers/STM32F2xx_HAL_Driver/Src/stm32f2xx_hal_flash.c ****        (+) Set the latency
  56:Drivers/STM32F2xx_HAL_Driver/Src/stm32f2xx_hal_flash.c ****        (+) Enable/Disable the prefetch buffer
  57:Drivers/STM32F2xx_HAL_Driver/Src/stm32f2xx_hal_flash.c ****        (+) Enable/Disable the Instruction cache and the Data cache
  58:Drivers/STM32F2xx_HAL_Driver/Src/stm32f2xx_hal_flash.c ****        (+) Reset the Instruction cache and the Data cache
  59:Drivers/STM32F2xx_HAL_Driver/Src/stm32f2xx_hal_flash.c ****        (+) Enable/Disable the FLASH interrupts
  60:Drivers/STM32F2xx_HAL_Driver/Src/stm32f2xx_hal_flash.c ****        (+) Monitor the FLASH flags status
  61:Drivers/STM32F2xx_HAL_Driver/Src/stm32f2xx_hal_flash.c ****           
  62:Drivers/STM32F2xx_HAL_Driver/Src/stm32f2xx_hal_flash.c ****   @endverbatim
  63:Drivers/STM32F2xx_HAL_Driver/Src/stm32f2xx_hal_flash.c ****   ******************************************************************************
  64:Drivers/STM32F2xx_HAL_Driver/Src/stm32f2xx_hal_flash.c ****   * @attention
  65:Drivers/STM32F2xx_HAL_Driver/Src/stm32f2xx_hal_flash.c ****   *
  66:Drivers/STM32F2xx_HAL_Driver/Src/stm32f2xx_hal_flash.c ****   * <h2><center>&copy; COPYRIGHT(c) 2017 STMicroelectronics</center></h2>
  67:Drivers/STM32F2xx_HAL_Driver/Src/stm32f2xx_hal_flash.c ****   *
  68:Drivers/STM32F2xx_HAL_Driver/Src/stm32f2xx_hal_flash.c ****   * Redistribution and use in source and binary forms, with or without modification,
  69:Drivers/STM32F2xx_HAL_Driver/Src/stm32f2xx_hal_flash.c ****   * are permitted provided that the following conditions are met:
  70:Drivers/STM32F2xx_HAL_Driver/Src/stm32f2xx_hal_flash.c ****   *   1. Redistributions of source code must retain the above copyright notice,
  71:Drivers/STM32F2xx_HAL_Driver/Src/stm32f2xx_hal_flash.c ****   *      this list of conditions and the following disclaimer.
  72:Drivers/STM32F2xx_HAL_Driver/Src/stm32f2xx_hal_flash.c ****   *   2. Redistributions in binary form must reproduce the above copyright notice,
  73:Drivers/STM32F2xx_HAL_Driver/Src/stm32f2xx_hal_flash.c ****   *      this list of conditions and the following disclaimer in the documentation
  74:Drivers/STM32F2xx_HAL_Driver/Src/stm32f2xx_hal_flash.c ****   *      and/or other materials provided with the distribution.
  75:Drivers/STM32F2xx_HAL_Driver/Src/stm32f2xx_hal_flash.c ****   *   3. Neither the name of STMicroelectronics nor the names of its contributors
  76:Drivers/STM32F2xx_HAL_Driver/Src/stm32f2xx_hal_flash.c ****   *      may be used to endorse or promote products derived from this software
  77:Drivers/STM32F2xx_HAL_Driver/Src/stm32f2xx_hal_flash.c ****   *      without specific prior written permission.
  78:Drivers/STM32F2xx_HAL_Driver/Src/stm32f2xx_hal_flash.c ****   *
  79:Drivers/STM32F2xx_HAL_Driver/Src/stm32f2xx_hal_flash.c ****   * THIS SOFTWARE IS PROVIDED BY THE COPYRIGHT HOLDERS AND CONTRIBUTORS "AS IS"
  80:Drivers/STM32F2xx_HAL_Driver/Src/stm32f2xx_hal_flash.c ****   * AND ANY EXPRESS OR IMPLIED WARRANTIES, INCLUDING, BUT NOT LIMITED TO, THE
  81:Drivers/STM32F2xx_HAL_Driver/Src/stm32f2xx_hal_flash.c ****   * IMPLIED WARRANTIES OF MERCHANTABILITY AND FITNESS FOR A PARTICULAR PURPOSE ARE
  82:Drivers/STM32F2xx_HAL_Driver/Src/stm32f2xx_hal_flash.c ****   * DISCLAIMED. IN NO EVENT SHALL THE COPYRIGHT HOLDER OR CONTRIBUTORS BE LIABLE
  83:Drivers/STM32F2xx_HAL_Driver/Src/stm32f2xx_hal_flash.c ****   * FOR ANY DIRECT, INDIRECT, INCIDENTAL, SPECIAL, EXEMPLARY, OR CONSEQUENTIAL
  84:Drivers/STM32F2xx_HAL_Driver/Src/stm32f2xx_hal_flash.c ****   * DAMAGES (INCLUDING, BUT NOT LIMITED TO, PROCUREMENT OF SUBSTITUTE GOODS OR
  85:Drivers/STM32F2xx_HAL_Driver/Src/stm32f2xx_hal_flash.c ****   * SERVICES; LOSS OF USE, DATA, OR PROFITS; OR BUSINESS INTERRUPTION) HOWEVER
  86:Drivers/STM32F2xx_HAL_Driver/Src/stm32f2xx_hal_flash.c ****   * CAUSED AND ON ANY THEORY OF LIABILITY, WHETHER IN CONTRACT, STRICT LIABILITY,
  87:Drivers/STM32F2xx_HAL_Driver/Src/stm32f2xx_hal_flash.c ****   * OR TORT (INCLUDING NEGLIGENCE OR OTHERWISE) ARISING IN ANY WAY OUT OF THE USE
  88:Drivers/STM32F2xx_HAL_Driver/Src/stm32f2xx_hal_flash.c ****   * OF THIS SOFTWARE, EVEN IF ADVISED OF THE POSSIBILITY OF SUCH DAMAGE.
  89:Drivers/STM32F2xx_HAL_Driver/Src/stm32f2xx_hal_flash.c ****   *
  90:Drivers/STM32F2xx_HAL_Driver/Src/stm32f2xx_hal_flash.c ****   ******************************************************************************
  91:Drivers/STM32F2xx_HAL_Driver/Src/stm32f2xx_hal_flash.c ****   */ 
ARM GAS  /tmp/ccCndbbD.s 			page 3


  92:Drivers/STM32F2xx_HAL_Driver/Src/stm32f2xx_hal_flash.c **** 
  93:Drivers/STM32F2xx_HAL_Driver/Src/stm32f2xx_hal_flash.c **** /* Includes ------------------------------------------------------------------*/
  94:Drivers/STM32F2xx_HAL_Driver/Src/stm32f2xx_hal_flash.c **** #include "stm32f2xx_hal.h"
  95:Drivers/STM32F2xx_HAL_Driver/Src/stm32f2xx_hal_flash.c **** 
  96:Drivers/STM32F2xx_HAL_Driver/Src/stm32f2xx_hal_flash.c **** /** @addtogroup STM32F2xx_HAL_Driver
  97:Drivers/STM32F2xx_HAL_Driver/Src/stm32f2xx_hal_flash.c ****   * @{
  98:Drivers/STM32F2xx_HAL_Driver/Src/stm32f2xx_hal_flash.c ****   */
  99:Drivers/STM32F2xx_HAL_Driver/Src/stm32f2xx_hal_flash.c **** 
 100:Drivers/STM32F2xx_HAL_Driver/Src/stm32f2xx_hal_flash.c **** /** @defgroup FLASH FLASH
 101:Drivers/STM32F2xx_HAL_Driver/Src/stm32f2xx_hal_flash.c ****   * @brief FLASH HAL module driver
 102:Drivers/STM32F2xx_HAL_Driver/Src/stm32f2xx_hal_flash.c ****   * @{
 103:Drivers/STM32F2xx_HAL_Driver/Src/stm32f2xx_hal_flash.c ****   */
 104:Drivers/STM32F2xx_HAL_Driver/Src/stm32f2xx_hal_flash.c **** 
 105:Drivers/STM32F2xx_HAL_Driver/Src/stm32f2xx_hal_flash.c **** #ifdef HAL_FLASH_MODULE_ENABLED
 106:Drivers/STM32F2xx_HAL_Driver/Src/stm32f2xx_hal_flash.c **** 
 107:Drivers/STM32F2xx_HAL_Driver/Src/stm32f2xx_hal_flash.c **** /* Private typedef -----------------------------------------------------------*/
 108:Drivers/STM32F2xx_HAL_Driver/Src/stm32f2xx_hal_flash.c **** /* Private define ------------------------------------------------------------*/
 109:Drivers/STM32F2xx_HAL_Driver/Src/stm32f2xx_hal_flash.c **** /** @addtogroup FLASH_Private_Constants
 110:Drivers/STM32F2xx_HAL_Driver/Src/stm32f2xx_hal_flash.c ****   * @{
 111:Drivers/STM32F2xx_HAL_Driver/Src/stm32f2xx_hal_flash.c ****   */
 112:Drivers/STM32F2xx_HAL_Driver/Src/stm32f2xx_hal_flash.c **** #define FLASH_TIMEOUT_VALUE       50000U   /* 50 s */
 113:Drivers/STM32F2xx_HAL_Driver/Src/stm32f2xx_hal_flash.c **** /**
 114:Drivers/STM32F2xx_HAL_Driver/Src/stm32f2xx_hal_flash.c ****   * @}
 115:Drivers/STM32F2xx_HAL_Driver/Src/stm32f2xx_hal_flash.c ****   */         
 116:Drivers/STM32F2xx_HAL_Driver/Src/stm32f2xx_hal_flash.c **** /* Private macro -------------------------------------------------------------*/
 117:Drivers/STM32F2xx_HAL_Driver/Src/stm32f2xx_hal_flash.c **** /* Private variables ---------------------------------------------------------*/
 118:Drivers/STM32F2xx_HAL_Driver/Src/stm32f2xx_hal_flash.c **** /** @addtogroup FLASH_Private_Variables
 119:Drivers/STM32F2xx_HAL_Driver/Src/stm32f2xx_hal_flash.c ****   * @{
 120:Drivers/STM32F2xx_HAL_Driver/Src/stm32f2xx_hal_flash.c ****   */
 121:Drivers/STM32F2xx_HAL_Driver/Src/stm32f2xx_hal_flash.c **** /* Variable used for Erase sectors under interruption */
 122:Drivers/STM32F2xx_HAL_Driver/Src/stm32f2xx_hal_flash.c **** FLASH_ProcessTypeDef pFlash;
 123:Drivers/STM32F2xx_HAL_Driver/Src/stm32f2xx_hal_flash.c **** /**
 124:Drivers/STM32F2xx_HAL_Driver/Src/stm32f2xx_hal_flash.c ****   * @}
 125:Drivers/STM32F2xx_HAL_Driver/Src/stm32f2xx_hal_flash.c ****   */
 126:Drivers/STM32F2xx_HAL_Driver/Src/stm32f2xx_hal_flash.c **** 
 127:Drivers/STM32F2xx_HAL_Driver/Src/stm32f2xx_hal_flash.c **** /* Private function prototypes -----------------------------------------------*/
 128:Drivers/STM32F2xx_HAL_Driver/Src/stm32f2xx_hal_flash.c **** /** @addtogroup FLASH_Private_Functions
 129:Drivers/STM32F2xx_HAL_Driver/Src/stm32f2xx_hal_flash.c ****   * @{
 130:Drivers/STM32F2xx_HAL_Driver/Src/stm32f2xx_hal_flash.c ****   */
 131:Drivers/STM32F2xx_HAL_Driver/Src/stm32f2xx_hal_flash.c **** /* Program operations */
 132:Drivers/STM32F2xx_HAL_Driver/Src/stm32f2xx_hal_flash.c **** static void   FLASH_Program_DoubleWord(uint32_t Address, uint64_t Data);
 133:Drivers/STM32F2xx_HAL_Driver/Src/stm32f2xx_hal_flash.c **** static void   FLASH_Program_Word(uint32_t Address, uint32_t Data);
 134:Drivers/STM32F2xx_HAL_Driver/Src/stm32f2xx_hal_flash.c **** static void   FLASH_Program_HalfWord(uint32_t Address, uint16_t Data);
 135:Drivers/STM32F2xx_HAL_Driver/Src/stm32f2xx_hal_flash.c **** static void   FLASH_Program_Byte(uint32_t Address, uint8_t Data);
 136:Drivers/STM32F2xx_HAL_Driver/Src/stm32f2xx_hal_flash.c **** static void   FLASH_SetErrorCode(void);
 137:Drivers/STM32F2xx_HAL_Driver/Src/stm32f2xx_hal_flash.c **** extern void   FLASH_FlushCaches(void);
 138:Drivers/STM32F2xx_HAL_Driver/Src/stm32f2xx_hal_flash.c **** 
 139:Drivers/STM32F2xx_HAL_Driver/Src/stm32f2xx_hal_flash.c **** HAL_StatusTypeDef FLASH_WaitForLastOperation(uint32_t Timeout);
 140:Drivers/STM32F2xx_HAL_Driver/Src/stm32f2xx_hal_flash.c **** /**
 141:Drivers/STM32F2xx_HAL_Driver/Src/stm32f2xx_hal_flash.c ****   * @}
 142:Drivers/STM32F2xx_HAL_Driver/Src/stm32f2xx_hal_flash.c ****   */
 143:Drivers/STM32F2xx_HAL_Driver/Src/stm32f2xx_hal_flash.c **** 
 144:Drivers/STM32F2xx_HAL_Driver/Src/stm32f2xx_hal_flash.c **** /* Exported functions --------------------------------------------------------*/
 145:Drivers/STM32F2xx_HAL_Driver/Src/stm32f2xx_hal_flash.c **** /** @defgroup FLASH_Exported_Functions FLASH Exported Functions
 146:Drivers/STM32F2xx_HAL_Driver/Src/stm32f2xx_hal_flash.c ****   * @{
 147:Drivers/STM32F2xx_HAL_Driver/Src/stm32f2xx_hal_flash.c ****   */
 148:Drivers/STM32F2xx_HAL_Driver/Src/stm32f2xx_hal_flash.c ****   
ARM GAS  /tmp/ccCndbbD.s 			page 4


 149:Drivers/STM32F2xx_HAL_Driver/Src/stm32f2xx_hal_flash.c **** /** @defgroup FLASH_Exported_Functions_Group1 Programming operation functions 
 150:Drivers/STM32F2xx_HAL_Driver/Src/stm32f2xx_hal_flash.c ****  *  @brief   Programming operation functions 
 151:Drivers/STM32F2xx_HAL_Driver/Src/stm32f2xx_hal_flash.c ****  *
 152:Drivers/STM32F2xx_HAL_Driver/Src/stm32f2xx_hal_flash.c **** @verbatim   
 153:Drivers/STM32F2xx_HAL_Driver/Src/stm32f2xx_hal_flash.c ****  ===============================================================================
 154:Drivers/STM32F2xx_HAL_Driver/Src/stm32f2xx_hal_flash.c ****                   ##### Programming operation functions #####
 155:Drivers/STM32F2xx_HAL_Driver/Src/stm32f2xx_hal_flash.c ****  ===============================================================================  
 156:Drivers/STM32F2xx_HAL_Driver/Src/stm32f2xx_hal_flash.c ****     [..]
 157:Drivers/STM32F2xx_HAL_Driver/Src/stm32f2xx_hal_flash.c ****     This subsection provides a set of functions allowing to manage the FLASH 
 158:Drivers/STM32F2xx_HAL_Driver/Src/stm32f2xx_hal_flash.c ****     program operations.
 159:Drivers/STM32F2xx_HAL_Driver/Src/stm32f2xx_hal_flash.c **** 
 160:Drivers/STM32F2xx_HAL_Driver/Src/stm32f2xx_hal_flash.c **** @endverbatim
 161:Drivers/STM32F2xx_HAL_Driver/Src/stm32f2xx_hal_flash.c ****   * @{
 162:Drivers/STM32F2xx_HAL_Driver/Src/stm32f2xx_hal_flash.c ****   */
 163:Drivers/STM32F2xx_HAL_Driver/Src/stm32f2xx_hal_flash.c **** 
 164:Drivers/STM32F2xx_HAL_Driver/Src/stm32f2xx_hal_flash.c **** /**
 165:Drivers/STM32F2xx_HAL_Driver/Src/stm32f2xx_hal_flash.c ****   * @brief  Program byte, halfword, word or double word at a specified address
 166:Drivers/STM32F2xx_HAL_Driver/Src/stm32f2xx_hal_flash.c ****   * @param  TypeProgram  Indicate the way to program at a specified address.
 167:Drivers/STM32F2xx_HAL_Driver/Src/stm32f2xx_hal_flash.c ****   *                           This parameter can be a value of @ref FLASH_Type_Program
 168:Drivers/STM32F2xx_HAL_Driver/Src/stm32f2xx_hal_flash.c ****   * @param  Address  specifies the address to be programmed.
 169:Drivers/STM32F2xx_HAL_Driver/Src/stm32f2xx_hal_flash.c ****   * @param  Data specifies the data to be programmed
 170:Drivers/STM32F2xx_HAL_Driver/Src/stm32f2xx_hal_flash.c ****   * 
 171:Drivers/STM32F2xx_HAL_Driver/Src/stm32f2xx_hal_flash.c ****   * @retval HAL_StatusTypeDef HAL Status
 172:Drivers/STM32F2xx_HAL_Driver/Src/stm32f2xx_hal_flash.c ****   */
 173:Drivers/STM32F2xx_HAL_Driver/Src/stm32f2xx_hal_flash.c **** HAL_StatusTypeDef HAL_FLASH_Program(uint32_t TypeProgram, uint32_t Address, uint64_t Data)
 174:Drivers/STM32F2xx_HAL_Driver/Src/stm32f2xx_hal_flash.c **** {
 175:Drivers/STM32F2xx_HAL_Driver/Src/stm32f2xx_hal_flash.c ****   HAL_StatusTypeDef status = HAL_ERROR;
 176:Drivers/STM32F2xx_HAL_Driver/Src/stm32f2xx_hal_flash.c ****   
 177:Drivers/STM32F2xx_HAL_Driver/Src/stm32f2xx_hal_flash.c ****   /* Process Locked */
 178:Drivers/STM32F2xx_HAL_Driver/Src/stm32f2xx_hal_flash.c ****   __HAL_LOCK(&pFlash);
 179:Drivers/STM32F2xx_HAL_Driver/Src/stm32f2xx_hal_flash.c ****   
 180:Drivers/STM32F2xx_HAL_Driver/Src/stm32f2xx_hal_flash.c ****   /* Check the parameters */
 181:Drivers/STM32F2xx_HAL_Driver/Src/stm32f2xx_hal_flash.c ****   assert_param(IS_FLASH_TYPEPROGRAM(TypeProgram));
 182:Drivers/STM32F2xx_HAL_Driver/Src/stm32f2xx_hal_flash.c ****   
 183:Drivers/STM32F2xx_HAL_Driver/Src/stm32f2xx_hal_flash.c ****   /* Wait for last operation to be completed */
 184:Drivers/STM32F2xx_HAL_Driver/Src/stm32f2xx_hal_flash.c ****   status = FLASH_WaitForLastOperation((uint32_t)FLASH_TIMEOUT_VALUE);
 185:Drivers/STM32F2xx_HAL_Driver/Src/stm32f2xx_hal_flash.c ****   
 186:Drivers/STM32F2xx_HAL_Driver/Src/stm32f2xx_hal_flash.c ****   if(status == HAL_OK)
 187:Drivers/STM32F2xx_HAL_Driver/Src/stm32f2xx_hal_flash.c ****   {
 188:Drivers/STM32F2xx_HAL_Driver/Src/stm32f2xx_hal_flash.c ****     if(TypeProgram == FLASH_TYPEPROGRAM_BYTE)
 189:Drivers/STM32F2xx_HAL_Driver/Src/stm32f2xx_hal_flash.c ****     {
 190:Drivers/STM32F2xx_HAL_Driver/Src/stm32f2xx_hal_flash.c ****       /*Program byte (8-bit) at a specified address.*/
 191:Drivers/STM32F2xx_HAL_Driver/Src/stm32f2xx_hal_flash.c ****       FLASH_Program_Byte(Address, (uint8_t) Data);
 192:Drivers/STM32F2xx_HAL_Driver/Src/stm32f2xx_hal_flash.c ****     }
 193:Drivers/STM32F2xx_HAL_Driver/Src/stm32f2xx_hal_flash.c ****     else if(TypeProgram == FLASH_TYPEPROGRAM_HALFWORD)
 194:Drivers/STM32F2xx_HAL_Driver/Src/stm32f2xx_hal_flash.c ****     {
 195:Drivers/STM32F2xx_HAL_Driver/Src/stm32f2xx_hal_flash.c ****       /*Program halfword (16-bit) at a specified address.*/
 196:Drivers/STM32F2xx_HAL_Driver/Src/stm32f2xx_hal_flash.c ****       FLASH_Program_HalfWord(Address, (uint16_t) Data);
 197:Drivers/STM32F2xx_HAL_Driver/Src/stm32f2xx_hal_flash.c ****     }
 198:Drivers/STM32F2xx_HAL_Driver/Src/stm32f2xx_hal_flash.c ****     else if(TypeProgram == FLASH_TYPEPROGRAM_WORD)
 199:Drivers/STM32F2xx_HAL_Driver/Src/stm32f2xx_hal_flash.c ****     {
 200:Drivers/STM32F2xx_HAL_Driver/Src/stm32f2xx_hal_flash.c ****       /*Program word (32-bit) at a specified address.*/
 201:Drivers/STM32F2xx_HAL_Driver/Src/stm32f2xx_hal_flash.c ****       FLASH_Program_Word(Address, (uint32_t) Data);
 202:Drivers/STM32F2xx_HAL_Driver/Src/stm32f2xx_hal_flash.c ****     }
 203:Drivers/STM32F2xx_HAL_Driver/Src/stm32f2xx_hal_flash.c ****     else
 204:Drivers/STM32F2xx_HAL_Driver/Src/stm32f2xx_hal_flash.c ****     {
 205:Drivers/STM32F2xx_HAL_Driver/Src/stm32f2xx_hal_flash.c ****       /*Program double word (64-bit) at a specified address.*/
ARM GAS  /tmp/ccCndbbD.s 			page 5


 206:Drivers/STM32F2xx_HAL_Driver/Src/stm32f2xx_hal_flash.c ****       FLASH_Program_DoubleWord(Address, Data);
 207:Drivers/STM32F2xx_HAL_Driver/Src/stm32f2xx_hal_flash.c ****     }
 208:Drivers/STM32F2xx_HAL_Driver/Src/stm32f2xx_hal_flash.c ****     
 209:Drivers/STM32F2xx_HAL_Driver/Src/stm32f2xx_hal_flash.c ****     /* Wait for last operation to be completed */
 210:Drivers/STM32F2xx_HAL_Driver/Src/stm32f2xx_hal_flash.c ****     status = FLASH_WaitForLastOperation((uint32_t)FLASH_TIMEOUT_VALUE);
 211:Drivers/STM32F2xx_HAL_Driver/Src/stm32f2xx_hal_flash.c ****     
 212:Drivers/STM32F2xx_HAL_Driver/Src/stm32f2xx_hal_flash.c ****     /* If the program operation is completed, disable the PG Bit */
 213:Drivers/STM32F2xx_HAL_Driver/Src/stm32f2xx_hal_flash.c ****     FLASH->CR &= (~FLASH_CR_PG);  
 214:Drivers/STM32F2xx_HAL_Driver/Src/stm32f2xx_hal_flash.c ****   }
 215:Drivers/STM32F2xx_HAL_Driver/Src/stm32f2xx_hal_flash.c ****   
 216:Drivers/STM32F2xx_HAL_Driver/Src/stm32f2xx_hal_flash.c ****   /* Process Unlocked */
 217:Drivers/STM32F2xx_HAL_Driver/Src/stm32f2xx_hal_flash.c ****   __HAL_UNLOCK(&pFlash);
 218:Drivers/STM32F2xx_HAL_Driver/Src/stm32f2xx_hal_flash.c ****   
 219:Drivers/STM32F2xx_HAL_Driver/Src/stm32f2xx_hal_flash.c ****   return status;
 220:Drivers/STM32F2xx_HAL_Driver/Src/stm32f2xx_hal_flash.c **** }
 221:Drivers/STM32F2xx_HAL_Driver/Src/stm32f2xx_hal_flash.c **** 
 222:Drivers/STM32F2xx_HAL_Driver/Src/stm32f2xx_hal_flash.c **** /**
 223:Drivers/STM32F2xx_HAL_Driver/Src/stm32f2xx_hal_flash.c ****   * @brief   Program byte, halfword, word or double word at a specified address  with interrupt ena
 224:Drivers/STM32F2xx_HAL_Driver/Src/stm32f2xx_hal_flash.c ****   * @param  TypeProgram  Indicate the way to program at a specified address.
 225:Drivers/STM32F2xx_HAL_Driver/Src/stm32f2xx_hal_flash.c ****   *                           This parameter can be a value of @ref FLASH_Type_Program
 226:Drivers/STM32F2xx_HAL_Driver/Src/stm32f2xx_hal_flash.c ****   * @param  Address  specifies the address to be programmed.
 227:Drivers/STM32F2xx_HAL_Driver/Src/stm32f2xx_hal_flash.c ****   * @param  Data specifies the data to be programmed
 228:Drivers/STM32F2xx_HAL_Driver/Src/stm32f2xx_hal_flash.c ****   * 
 229:Drivers/STM32F2xx_HAL_Driver/Src/stm32f2xx_hal_flash.c ****   * @retval HAL Status
 230:Drivers/STM32F2xx_HAL_Driver/Src/stm32f2xx_hal_flash.c ****   */
 231:Drivers/STM32F2xx_HAL_Driver/Src/stm32f2xx_hal_flash.c **** HAL_StatusTypeDef HAL_FLASH_Program_IT(uint32_t TypeProgram, uint32_t Address, uint64_t Data)
 232:Drivers/STM32F2xx_HAL_Driver/Src/stm32f2xx_hal_flash.c **** {
 233:Drivers/STM32F2xx_HAL_Driver/Src/stm32f2xx_hal_flash.c ****   HAL_StatusTypeDef status = HAL_OK;
 234:Drivers/STM32F2xx_HAL_Driver/Src/stm32f2xx_hal_flash.c ****   
 235:Drivers/STM32F2xx_HAL_Driver/Src/stm32f2xx_hal_flash.c ****   /* Process Locked */
 236:Drivers/STM32F2xx_HAL_Driver/Src/stm32f2xx_hal_flash.c ****   __HAL_LOCK(&pFlash);
 237:Drivers/STM32F2xx_HAL_Driver/Src/stm32f2xx_hal_flash.c **** 
 238:Drivers/STM32F2xx_HAL_Driver/Src/stm32f2xx_hal_flash.c ****   /* Check the parameters */
 239:Drivers/STM32F2xx_HAL_Driver/Src/stm32f2xx_hal_flash.c ****   assert_param(IS_FLASH_TYPEPROGRAM(TypeProgram));
 240:Drivers/STM32F2xx_HAL_Driver/Src/stm32f2xx_hal_flash.c **** 
 241:Drivers/STM32F2xx_HAL_Driver/Src/stm32f2xx_hal_flash.c ****   /* Enable End of FLASH Operation interrupt */
 242:Drivers/STM32F2xx_HAL_Driver/Src/stm32f2xx_hal_flash.c ****   __HAL_FLASH_ENABLE_IT(FLASH_IT_EOP);
 243:Drivers/STM32F2xx_HAL_Driver/Src/stm32f2xx_hal_flash.c ****   
 244:Drivers/STM32F2xx_HAL_Driver/Src/stm32f2xx_hal_flash.c ****   /* Enable Error source interrupt */
 245:Drivers/STM32F2xx_HAL_Driver/Src/stm32f2xx_hal_flash.c ****   __HAL_FLASH_ENABLE_IT(FLASH_IT_ERR);
 246:Drivers/STM32F2xx_HAL_Driver/Src/stm32f2xx_hal_flash.c **** 
 247:Drivers/STM32F2xx_HAL_Driver/Src/stm32f2xx_hal_flash.c ****   pFlash.ProcedureOnGoing = FLASH_PROC_PROGRAM;
 248:Drivers/STM32F2xx_HAL_Driver/Src/stm32f2xx_hal_flash.c ****   pFlash.Address = Address;
 249:Drivers/STM32F2xx_HAL_Driver/Src/stm32f2xx_hal_flash.c **** 
 250:Drivers/STM32F2xx_HAL_Driver/Src/stm32f2xx_hal_flash.c ****   if(TypeProgram == FLASH_TYPEPROGRAM_BYTE)
 251:Drivers/STM32F2xx_HAL_Driver/Src/stm32f2xx_hal_flash.c ****   {
 252:Drivers/STM32F2xx_HAL_Driver/Src/stm32f2xx_hal_flash.c ****     /*Program byte (8-bit) at a specified address.*/
 253:Drivers/STM32F2xx_HAL_Driver/Src/stm32f2xx_hal_flash.c ****       FLASH_Program_Byte(Address, (uint8_t) Data);
 254:Drivers/STM32F2xx_HAL_Driver/Src/stm32f2xx_hal_flash.c ****   }
 255:Drivers/STM32F2xx_HAL_Driver/Src/stm32f2xx_hal_flash.c ****   else if(TypeProgram == FLASH_TYPEPROGRAM_HALFWORD)
 256:Drivers/STM32F2xx_HAL_Driver/Src/stm32f2xx_hal_flash.c ****   {
 257:Drivers/STM32F2xx_HAL_Driver/Src/stm32f2xx_hal_flash.c ****     /*Program halfword (16-bit) at a specified address.*/
 258:Drivers/STM32F2xx_HAL_Driver/Src/stm32f2xx_hal_flash.c ****     FLASH_Program_HalfWord(Address, (uint16_t) Data);
 259:Drivers/STM32F2xx_HAL_Driver/Src/stm32f2xx_hal_flash.c ****   }
 260:Drivers/STM32F2xx_HAL_Driver/Src/stm32f2xx_hal_flash.c ****   else if(TypeProgram == FLASH_TYPEPROGRAM_WORD)
 261:Drivers/STM32F2xx_HAL_Driver/Src/stm32f2xx_hal_flash.c ****   {
 262:Drivers/STM32F2xx_HAL_Driver/Src/stm32f2xx_hal_flash.c ****     /*Program word (32-bit) at a specified address.*/
ARM GAS  /tmp/ccCndbbD.s 			page 6


 263:Drivers/STM32F2xx_HAL_Driver/Src/stm32f2xx_hal_flash.c ****     FLASH_Program_Word(Address, (uint32_t) Data);
 264:Drivers/STM32F2xx_HAL_Driver/Src/stm32f2xx_hal_flash.c ****   }
 265:Drivers/STM32F2xx_HAL_Driver/Src/stm32f2xx_hal_flash.c ****   else
 266:Drivers/STM32F2xx_HAL_Driver/Src/stm32f2xx_hal_flash.c ****   {
 267:Drivers/STM32F2xx_HAL_Driver/Src/stm32f2xx_hal_flash.c ****     /*Program double word (64-bit) at a specified address.*/
 268:Drivers/STM32F2xx_HAL_Driver/Src/stm32f2xx_hal_flash.c ****     FLASH_Program_DoubleWord(Address, Data);
 269:Drivers/STM32F2xx_HAL_Driver/Src/stm32f2xx_hal_flash.c ****   }
 270:Drivers/STM32F2xx_HAL_Driver/Src/stm32f2xx_hal_flash.c **** 
 271:Drivers/STM32F2xx_HAL_Driver/Src/stm32f2xx_hal_flash.c ****   return status;
 272:Drivers/STM32F2xx_HAL_Driver/Src/stm32f2xx_hal_flash.c **** }
 273:Drivers/STM32F2xx_HAL_Driver/Src/stm32f2xx_hal_flash.c **** 
 274:Drivers/STM32F2xx_HAL_Driver/Src/stm32f2xx_hal_flash.c **** /**
 275:Drivers/STM32F2xx_HAL_Driver/Src/stm32f2xx_hal_flash.c ****   * @brief This function handles FLASH interrupt request.
 276:Drivers/STM32F2xx_HAL_Driver/Src/stm32f2xx_hal_flash.c ****   * @retval None
 277:Drivers/STM32F2xx_HAL_Driver/Src/stm32f2xx_hal_flash.c ****   */
 278:Drivers/STM32F2xx_HAL_Driver/Src/stm32f2xx_hal_flash.c **** void HAL_FLASH_IRQHandler(void)
 279:Drivers/STM32F2xx_HAL_Driver/Src/stm32f2xx_hal_flash.c **** {
 280:Drivers/STM32F2xx_HAL_Driver/Src/stm32f2xx_hal_flash.c ****   uint32_t addresstmp = 0U;
 281:Drivers/STM32F2xx_HAL_Driver/Src/stm32f2xx_hal_flash.c ****   
 282:Drivers/STM32F2xx_HAL_Driver/Src/stm32f2xx_hal_flash.c ****   /* Check FLASH operation error flags */
 283:Drivers/STM32F2xx_HAL_Driver/Src/stm32f2xx_hal_flash.c ****   if(__HAL_FLASH_GET_FLAG((FLASH_FLAG_OPERR | FLASH_FLAG_WRPERR | FLASH_FLAG_PGAERR | \
 284:Drivers/STM32F2xx_HAL_Driver/Src/stm32f2xx_hal_flash.c ****     FLASH_FLAG_PGPERR | FLASH_FLAG_PGSERR )) != RESET)
 285:Drivers/STM32F2xx_HAL_Driver/Src/stm32f2xx_hal_flash.c ****   {
 286:Drivers/STM32F2xx_HAL_Driver/Src/stm32f2xx_hal_flash.c ****     if(pFlash.ProcedureOnGoing == FLASH_PROC_SECTERASE)
 287:Drivers/STM32F2xx_HAL_Driver/Src/stm32f2xx_hal_flash.c ****     {
 288:Drivers/STM32F2xx_HAL_Driver/Src/stm32f2xx_hal_flash.c ****       /*return the faulty sector*/
 289:Drivers/STM32F2xx_HAL_Driver/Src/stm32f2xx_hal_flash.c ****       addresstmp = pFlash.Sector;
 290:Drivers/STM32F2xx_HAL_Driver/Src/stm32f2xx_hal_flash.c ****       pFlash.Sector = 0xFFFFFFFFU;
 291:Drivers/STM32F2xx_HAL_Driver/Src/stm32f2xx_hal_flash.c ****     }
 292:Drivers/STM32F2xx_HAL_Driver/Src/stm32f2xx_hal_flash.c ****     else if(pFlash.ProcedureOnGoing == FLASH_PROC_MASSERASE)
 293:Drivers/STM32F2xx_HAL_Driver/Src/stm32f2xx_hal_flash.c ****     {
 294:Drivers/STM32F2xx_HAL_Driver/Src/stm32f2xx_hal_flash.c ****       /*return the faulty bank*/
 295:Drivers/STM32F2xx_HAL_Driver/Src/stm32f2xx_hal_flash.c ****       addresstmp = pFlash.Bank;
 296:Drivers/STM32F2xx_HAL_Driver/Src/stm32f2xx_hal_flash.c ****     }
 297:Drivers/STM32F2xx_HAL_Driver/Src/stm32f2xx_hal_flash.c ****     else
 298:Drivers/STM32F2xx_HAL_Driver/Src/stm32f2xx_hal_flash.c ****     {
 299:Drivers/STM32F2xx_HAL_Driver/Src/stm32f2xx_hal_flash.c ****       /*return the faulty address*/
 300:Drivers/STM32F2xx_HAL_Driver/Src/stm32f2xx_hal_flash.c ****       addresstmp = pFlash.Address;
 301:Drivers/STM32F2xx_HAL_Driver/Src/stm32f2xx_hal_flash.c ****     }
 302:Drivers/STM32F2xx_HAL_Driver/Src/stm32f2xx_hal_flash.c ****     
 303:Drivers/STM32F2xx_HAL_Driver/Src/stm32f2xx_hal_flash.c ****     /*Save the Error code*/
 304:Drivers/STM32F2xx_HAL_Driver/Src/stm32f2xx_hal_flash.c ****     FLASH_SetErrorCode();
 305:Drivers/STM32F2xx_HAL_Driver/Src/stm32f2xx_hal_flash.c ****     
 306:Drivers/STM32F2xx_HAL_Driver/Src/stm32f2xx_hal_flash.c ****     /* FLASH error interrupt user callback */
 307:Drivers/STM32F2xx_HAL_Driver/Src/stm32f2xx_hal_flash.c ****     HAL_FLASH_OperationErrorCallback(addresstmp);
 308:Drivers/STM32F2xx_HAL_Driver/Src/stm32f2xx_hal_flash.c ****     
 309:Drivers/STM32F2xx_HAL_Driver/Src/stm32f2xx_hal_flash.c ****     /*Stop the procedure ongoing*/
 310:Drivers/STM32F2xx_HAL_Driver/Src/stm32f2xx_hal_flash.c ****     pFlash.ProcedureOnGoing = FLASH_PROC_NONE;
 311:Drivers/STM32F2xx_HAL_Driver/Src/stm32f2xx_hal_flash.c ****   }
 312:Drivers/STM32F2xx_HAL_Driver/Src/stm32f2xx_hal_flash.c ****   
 313:Drivers/STM32F2xx_HAL_Driver/Src/stm32f2xx_hal_flash.c ****   /* Check FLASH End of Operation flag  */
 314:Drivers/STM32F2xx_HAL_Driver/Src/stm32f2xx_hal_flash.c ****   if(__HAL_FLASH_GET_FLAG(FLASH_FLAG_EOP) != RESET)
 315:Drivers/STM32F2xx_HAL_Driver/Src/stm32f2xx_hal_flash.c ****   {
 316:Drivers/STM32F2xx_HAL_Driver/Src/stm32f2xx_hal_flash.c ****     /* Clear FLASH End of Operation pending bit */
 317:Drivers/STM32F2xx_HAL_Driver/Src/stm32f2xx_hal_flash.c ****     __HAL_FLASH_CLEAR_FLAG(FLASH_FLAG_EOP);
 318:Drivers/STM32F2xx_HAL_Driver/Src/stm32f2xx_hal_flash.c ****     
 319:Drivers/STM32F2xx_HAL_Driver/Src/stm32f2xx_hal_flash.c ****     if(pFlash.ProcedureOnGoing == FLASH_PROC_SECTERASE)
ARM GAS  /tmp/ccCndbbD.s 			page 7


 320:Drivers/STM32F2xx_HAL_Driver/Src/stm32f2xx_hal_flash.c ****     {
 321:Drivers/STM32F2xx_HAL_Driver/Src/stm32f2xx_hal_flash.c ****       /*Nb of sector to erased can be decreased*/
 322:Drivers/STM32F2xx_HAL_Driver/Src/stm32f2xx_hal_flash.c ****       pFlash.NbSectorsToErase--;
 323:Drivers/STM32F2xx_HAL_Driver/Src/stm32f2xx_hal_flash.c ****       
 324:Drivers/STM32F2xx_HAL_Driver/Src/stm32f2xx_hal_flash.c ****       /* Check if there are still sectors to erase*/
 325:Drivers/STM32F2xx_HAL_Driver/Src/stm32f2xx_hal_flash.c ****       if(pFlash.NbSectorsToErase != 0U)
 326:Drivers/STM32F2xx_HAL_Driver/Src/stm32f2xx_hal_flash.c ****       {
 327:Drivers/STM32F2xx_HAL_Driver/Src/stm32f2xx_hal_flash.c ****         addresstmp = pFlash.Sector;
 328:Drivers/STM32F2xx_HAL_Driver/Src/stm32f2xx_hal_flash.c ****         /*Indicate user which sector has been erased*/
 329:Drivers/STM32F2xx_HAL_Driver/Src/stm32f2xx_hal_flash.c ****         HAL_FLASH_EndOfOperationCallback(addresstmp);
 330:Drivers/STM32F2xx_HAL_Driver/Src/stm32f2xx_hal_flash.c ****         
 331:Drivers/STM32F2xx_HAL_Driver/Src/stm32f2xx_hal_flash.c ****         /*Increment sector number*/
 332:Drivers/STM32F2xx_HAL_Driver/Src/stm32f2xx_hal_flash.c ****         pFlash.Sector++;
 333:Drivers/STM32F2xx_HAL_Driver/Src/stm32f2xx_hal_flash.c ****         addresstmp = pFlash.Sector;
 334:Drivers/STM32F2xx_HAL_Driver/Src/stm32f2xx_hal_flash.c ****         FLASH_Erase_Sector(addresstmp, pFlash.VoltageForErase);
 335:Drivers/STM32F2xx_HAL_Driver/Src/stm32f2xx_hal_flash.c ****       }
 336:Drivers/STM32F2xx_HAL_Driver/Src/stm32f2xx_hal_flash.c ****       else
 337:Drivers/STM32F2xx_HAL_Driver/Src/stm32f2xx_hal_flash.c ****       {
 338:Drivers/STM32F2xx_HAL_Driver/Src/stm32f2xx_hal_flash.c ****         /*No more sectors to Erase, user callback can be called.*/
 339:Drivers/STM32F2xx_HAL_Driver/Src/stm32f2xx_hal_flash.c ****         /*Reset Sector and stop Erase sectors procedure*/
 340:Drivers/STM32F2xx_HAL_Driver/Src/stm32f2xx_hal_flash.c ****         pFlash.Sector = addresstmp = 0xFFFFFFFFU;
 341:Drivers/STM32F2xx_HAL_Driver/Src/stm32f2xx_hal_flash.c ****         pFlash.ProcedureOnGoing = FLASH_PROC_NONE;
 342:Drivers/STM32F2xx_HAL_Driver/Src/stm32f2xx_hal_flash.c ****         
 343:Drivers/STM32F2xx_HAL_Driver/Src/stm32f2xx_hal_flash.c ****         /* Flush the caches to be sure of the data consistency */
 344:Drivers/STM32F2xx_HAL_Driver/Src/stm32f2xx_hal_flash.c ****         FLASH_FlushCaches() ;
 345:Drivers/STM32F2xx_HAL_Driver/Src/stm32f2xx_hal_flash.c ****                 
 346:Drivers/STM32F2xx_HAL_Driver/Src/stm32f2xx_hal_flash.c ****         /* FLASH EOP interrupt user callback */
 347:Drivers/STM32F2xx_HAL_Driver/Src/stm32f2xx_hal_flash.c ****         HAL_FLASH_EndOfOperationCallback(addresstmp);
 348:Drivers/STM32F2xx_HAL_Driver/Src/stm32f2xx_hal_flash.c ****       }
 349:Drivers/STM32F2xx_HAL_Driver/Src/stm32f2xx_hal_flash.c ****     }
 350:Drivers/STM32F2xx_HAL_Driver/Src/stm32f2xx_hal_flash.c ****     else 
 351:Drivers/STM32F2xx_HAL_Driver/Src/stm32f2xx_hal_flash.c ****     {
 352:Drivers/STM32F2xx_HAL_Driver/Src/stm32f2xx_hal_flash.c ****       if(pFlash.ProcedureOnGoing == FLASH_PROC_MASSERASE) 
 353:Drivers/STM32F2xx_HAL_Driver/Src/stm32f2xx_hal_flash.c ****       {
 354:Drivers/STM32F2xx_HAL_Driver/Src/stm32f2xx_hal_flash.c ****         /* MassErase ended. Return the selected bank */
 355:Drivers/STM32F2xx_HAL_Driver/Src/stm32f2xx_hal_flash.c ****         /* Flush the caches to be sure of the data consistency */
 356:Drivers/STM32F2xx_HAL_Driver/Src/stm32f2xx_hal_flash.c ****         FLASH_FlushCaches() ;
 357:Drivers/STM32F2xx_HAL_Driver/Src/stm32f2xx_hal_flash.c **** 
 358:Drivers/STM32F2xx_HAL_Driver/Src/stm32f2xx_hal_flash.c ****         /* FLASH EOP interrupt user callback */
 359:Drivers/STM32F2xx_HAL_Driver/Src/stm32f2xx_hal_flash.c ****         HAL_FLASH_EndOfOperationCallback(pFlash.Bank);
 360:Drivers/STM32F2xx_HAL_Driver/Src/stm32f2xx_hal_flash.c ****       }
 361:Drivers/STM32F2xx_HAL_Driver/Src/stm32f2xx_hal_flash.c ****       else
 362:Drivers/STM32F2xx_HAL_Driver/Src/stm32f2xx_hal_flash.c ****       {
 363:Drivers/STM32F2xx_HAL_Driver/Src/stm32f2xx_hal_flash.c ****         /*Program ended. Return the selected address*/
 364:Drivers/STM32F2xx_HAL_Driver/Src/stm32f2xx_hal_flash.c ****         /* FLASH EOP interrupt user callback */
 365:Drivers/STM32F2xx_HAL_Driver/Src/stm32f2xx_hal_flash.c ****         HAL_FLASH_EndOfOperationCallback(pFlash.Address);
 366:Drivers/STM32F2xx_HAL_Driver/Src/stm32f2xx_hal_flash.c ****       }
 367:Drivers/STM32F2xx_HAL_Driver/Src/stm32f2xx_hal_flash.c ****       pFlash.ProcedureOnGoing = FLASH_PROC_NONE;
 368:Drivers/STM32F2xx_HAL_Driver/Src/stm32f2xx_hal_flash.c ****     }
 369:Drivers/STM32F2xx_HAL_Driver/Src/stm32f2xx_hal_flash.c ****   }
 370:Drivers/STM32F2xx_HAL_Driver/Src/stm32f2xx_hal_flash.c ****   
 371:Drivers/STM32F2xx_HAL_Driver/Src/stm32f2xx_hal_flash.c ****   if(pFlash.ProcedureOnGoing == FLASH_PROC_NONE)
 372:Drivers/STM32F2xx_HAL_Driver/Src/stm32f2xx_hal_flash.c ****   {
 373:Drivers/STM32F2xx_HAL_Driver/Src/stm32f2xx_hal_flash.c ****     /* Operation is completed, disable the PG, SER, SNB and MER Bits */
 374:Drivers/STM32F2xx_HAL_Driver/Src/stm32f2xx_hal_flash.c ****     CLEAR_BIT(FLASH->CR, (FLASH_CR_PG | FLASH_CR_SER | FLASH_CR_SNB | FLASH_MER_BIT));
 375:Drivers/STM32F2xx_HAL_Driver/Src/stm32f2xx_hal_flash.c **** 
 376:Drivers/STM32F2xx_HAL_Driver/Src/stm32f2xx_hal_flash.c ****     /* Disable End of FLASH Operation interrupt */
ARM GAS  /tmp/ccCndbbD.s 			page 8


 377:Drivers/STM32F2xx_HAL_Driver/Src/stm32f2xx_hal_flash.c ****     __HAL_FLASH_DISABLE_IT(FLASH_IT_EOP);
 378:Drivers/STM32F2xx_HAL_Driver/Src/stm32f2xx_hal_flash.c ****     
 379:Drivers/STM32F2xx_HAL_Driver/Src/stm32f2xx_hal_flash.c ****     /* Disable Error source interrupt */
 380:Drivers/STM32F2xx_HAL_Driver/Src/stm32f2xx_hal_flash.c ****     __HAL_FLASH_DISABLE_IT(FLASH_IT_ERR);
 381:Drivers/STM32F2xx_HAL_Driver/Src/stm32f2xx_hal_flash.c ****     
 382:Drivers/STM32F2xx_HAL_Driver/Src/stm32f2xx_hal_flash.c ****     /* Process Unlocked */
 383:Drivers/STM32F2xx_HAL_Driver/Src/stm32f2xx_hal_flash.c ****     __HAL_UNLOCK(&pFlash);
 384:Drivers/STM32F2xx_HAL_Driver/Src/stm32f2xx_hal_flash.c ****   }
 385:Drivers/STM32F2xx_HAL_Driver/Src/stm32f2xx_hal_flash.c **** }
 386:Drivers/STM32F2xx_HAL_Driver/Src/stm32f2xx_hal_flash.c **** 
 387:Drivers/STM32F2xx_HAL_Driver/Src/stm32f2xx_hal_flash.c **** /**
 388:Drivers/STM32F2xx_HAL_Driver/Src/stm32f2xx_hal_flash.c ****   * @brief  FLASH end of operation interrupt callback
 389:Drivers/STM32F2xx_HAL_Driver/Src/stm32f2xx_hal_flash.c ****   * @param  ReturnValue The value saved in this parameter depends on the ongoing procedure
 390:Drivers/STM32F2xx_HAL_Driver/Src/stm32f2xx_hal_flash.c ****   *                  Mass Erase: Bank number which has been requested to erase
 391:Drivers/STM32F2xx_HAL_Driver/Src/stm32f2xx_hal_flash.c ****   *                  Sectors Erase: Sector which has been erased 
 392:Drivers/STM32F2xx_HAL_Driver/Src/stm32f2xx_hal_flash.c ****   *                    (if 0xFFFFFFFF, it means that all the selected sectors have been erased)
 393:Drivers/STM32F2xx_HAL_Driver/Src/stm32f2xx_hal_flash.c ****   *                  Program: Address which was selected for data program
 394:Drivers/STM32F2xx_HAL_Driver/Src/stm32f2xx_hal_flash.c ****   * @retval None
 395:Drivers/STM32F2xx_HAL_Driver/Src/stm32f2xx_hal_flash.c ****   */
 396:Drivers/STM32F2xx_HAL_Driver/Src/stm32f2xx_hal_flash.c **** __weak void HAL_FLASH_EndOfOperationCallback(uint32_t ReturnValue)
 397:Drivers/STM32F2xx_HAL_Driver/Src/stm32f2xx_hal_flash.c **** {
 398:Drivers/STM32F2xx_HAL_Driver/Src/stm32f2xx_hal_flash.c ****   /* Prevent unused argument(s) compilation warning */
 399:Drivers/STM32F2xx_HAL_Driver/Src/stm32f2xx_hal_flash.c ****   UNUSED(ReturnValue);
 400:Drivers/STM32F2xx_HAL_Driver/Src/stm32f2xx_hal_flash.c ****   /* NOTE : This function Should not be modified, when the callback is needed,
 401:Drivers/STM32F2xx_HAL_Driver/Src/stm32f2xx_hal_flash.c ****             the HAL_FLASH_EndOfOperationCallback could be implemented in the user file
 402:Drivers/STM32F2xx_HAL_Driver/Src/stm32f2xx_hal_flash.c ****    */ 
 403:Drivers/STM32F2xx_HAL_Driver/Src/stm32f2xx_hal_flash.c **** }
 404:Drivers/STM32F2xx_HAL_Driver/Src/stm32f2xx_hal_flash.c **** 
 405:Drivers/STM32F2xx_HAL_Driver/Src/stm32f2xx_hal_flash.c **** /**
 406:Drivers/STM32F2xx_HAL_Driver/Src/stm32f2xx_hal_flash.c ****   * @brief  FLASH operation error interrupt callback
 407:Drivers/STM32F2xx_HAL_Driver/Src/stm32f2xx_hal_flash.c ****   * @param  ReturnValue The value saved in this parameter depends on the ongoing procedure
 408:Drivers/STM32F2xx_HAL_Driver/Src/stm32f2xx_hal_flash.c ****   *                 Mass Erase: Bank number which has been requested to erase
 409:Drivers/STM32F2xx_HAL_Driver/Src/stm32f2xx_hal_flash.c ****   *                 Sectors Erase: Sector number which returned an error
 410:Drivers/STM32F2xx_HAL_Driver/Src/stm32f2xx_hal_flash.c ****   *                 Program: Address which was selected for data program
 411:Drivers/STM32F2xx_HAL_Driver/Src/stm32f2xx_hal_flash.c ****   * @retval None
 412:Drivers/STM32F2xx_HAL_Driver/Src/stm32f2xx_hal_flash.c ****   */
 413:Drivers/STM32F2xx_HAL_Driver/Src/stm32f2xx_hal_flash.c **** __weak void HAL_FLASH_OperationErrorCallback(uint32_t ReturnValue)
 414:Drivers/STM32F2xx_HAL_Driver/Src/stm32f2xx_hal_flash.c **** {
 415:Drivers/STM32F2xx_HAL_Driver/Src/stm32f2xx_hal_flash.c ****   /* Prevent unused argument(s) compilation warning */
 416:Drivers/STM32F2xx_HAL_Driver/Src/stm32f2xx_hal_flash.c ****   UNUSED(ReturnValue);
 417:Drivers/STM32F2xx_HAL_Driver/Src/stm32f2xx_hal_flash.c ****   /* NOTE : This function Should not be modified, when the callback is needed,
 418:Drivers/STM32F2xx_HAL_Driver/Src/stm32f2xx_hal_flash.c ****             the HAL_FLASH_OperationErrorCallback could be implemented in the user file
 419:Drivers/STM32F2xx_HAL_Driver/Src/stm32f2xx_hal_flash.c ****    */ 
 420:Drivers/STM32F2xx_HAL_Driver/Src/stm32f2xx_hal_flash.c **** }
 421:Drivers/STM32F2xx_HAL_Driver/Src/stm32f2xx_hal_flash.c **** 
 422:Drivers/STM32F2xx_HAL_Driver/Src/stm32f2xx_hal_flash.c **** /**
 423:Drivers/STM32F2xx_HAL_Driver/Src/stm32f2xx_hal_flash.c ****   * @}
 424:Drivers/STM32F2xx_HAL_Driver/Src/stm32f2xx_hal_flash.c ****   */
 425:Drivers/STM32F2xx_HAL_Driver/Src/stm32f2xx_hal_flash.c **** 
 426:Drivers/STM32F2xx_HAL_Driver/Src/stm32f2xx_hal_flash.c **** /** @defgroup FLASH_Exported_Functions_Group2 Peripheral Control functions 
 427:Drivers/STM32F2xx_HAL_Driver/Src/stm32f2xx_hal_flash.c ****  *  @brief   management functions 
 428:Drivers/STM32F2xx_HAL_Driver/Src/stm32f2xx_hal_flash.c ****  *
 429:Drivers/STM32F2xx_HAL_Driver/Src/stm32f2xx_hal_flash.c **** @verbatim   
 430:Drivers/STM32F2xx_HAL_Driver/Src/stm32f2xx_hal_flash.c ****  ===============================================================================
 431:Drivers/STM32F2xx_HAL_Driver/Src/stm32f2xx_hal_flash.c ****                       ##### Peripheral Control functions #####
 432:Drivers/STM32F2xx_HAL_Driver/Src/stm32f2xx_hal_flash.c ****  ===============================================================================  
 433:Drivers/STM32F2xx_HAL_Driver/Src/stm32f2xx_hal_flash.c ****     [..]
ARM GAS  /tmp/ccCndbbD.s 			page 9


 434:Drivers/STM32F2xx_HAL_Driver/Src/stm32f2xx_hal_flash.c ****     This subsection provides a set of functions allowing to control the FLASH 
 435:Drivers/STM32F2xx_HAL_Driver/Src/stm32f2xx_hal_flash.c ****     memory operations.
 436:Drivers/STM32F2xx_HAL_Driver/Src/stm32f2xx_hal_flash.c **** 
 437:Drivers/STM32F2xx_HAL_Driver/Src/stm32f2xx_hal_flash.c **** @endverbatim
 438:Drivers/STM32F2xx_HAL_Driver/Src/stm32f2xx_hal_flash.c ****   * @{
 439:Drivers/STM32F2xx_HAL_Driver/Src/stm32f2xx_hal_flash.c ****   */
 440:Drivers/STM32F2xx_HAL_Driver/Src/stm32f2xx_hal_flash.c **** 
 441:Drivers/STM32F2xx_HAL_Driver/Src/stm32f2xx_hal_flash.c **** /**
 442:Drivers/STM32F2xx_HAL_Driver/Src/stm32f2xx_hal_flash.c ****   * @brief  Unlock the FLASH control register access
 443:Drivers/STM32F2xx_HAL_Driver/Src/stm32f2xx_hal_flash.c ****   * @retval HAL Status
 444:Drivers/STM32F2xx_HAL_Driver/Src/stm32f2xx_hal_flash.c ****   */
 445:Drivers/STM32F2xx_HAL_Driver/Src/stm32f2xx_hal_flash.c **** HAL_StatusTypeDef HAL_FLASH_Unlock(void)
 446:Drivers/STM32F2xx_HAL_Driver/Src/stm32f2xx_hal_flash.c **** {
 447:Drivers/STM32F2xx_HAL_Driver/Src/stm32f2xx_hal_flash.c ****   if((FLASH->CR & FLASH_CR_LOCK) != RESET)
 448:Drivers/STM32F2xx_HAL_Driver/Src/stm32f2xx_hal_flash.c ****   {
 449:Drivers/STM32F2xx_HAL_Driver/Src/stm32f2xx_hal_flash.c ****     /* Authorize the FLASH Registers access */
 450:Drivers/STM32F2xx_HAL_Driver/Src/stm32f2xx_hal_flash.c ****     FLASH->KEYR = FLASH_KEY1;
 451:Drivers/STM32F2xx_HAL_Driver/Src/stm32f2xx_hal_flash.c ****     FLASH->KEYR = FLASH_KEY2;
 452:Drivers/STM32F2xx_HAL_Driver/Src/stm32f2xx_hal_flash.c ****   }
 453:Drivers/STM32F2xx_HAL_Driver/Src/stm32f2xx_hal_flash.c ****   else
 454:Drivers/STM32F2xx_HAL_Driver/Src/stm32f2xx_hal_flash.c ****   {
 455:Drivers/STM32F2xx_HAL_Driver/Src/stm32f2xx_hal_flash.c ****     return HAL_ERROR;
 456:Drivers/STM32F2xx_HAL_Driver/Src/stm32f2xx_hal_flash.c ****   }
 457:Drivers/STM32F2xx_HAL_Driver/Src/stm32f2xx_hal_flash.c ****   
 458:Drivers/STM32F2xx_HAL_Driver/Src/stm32f2xx_hal_flash.c ****   return HAL_OK; 
 459:Drivers/STM32F2xx_HAL_Driver/Src/stm32f2xx_hal_flash.c **** }
 460:Drivers/STM32F2xx_HAL_Driver/Src/stm32f2xx_hal_flash.c **** 
 461:Drivers/STM32F2xx_HAL_Driver/Src/stm32f2xx_hal_flash.c **** /**
 462:Drivers/STM32F2xx_HAL_Driver/Src/stm32f2xx_hal_flash.c ****   * @brief  Locks the FLASH control register access
 463:Drivers/STM32F2xx_HAL_Driver/Src/stm32f2xx_hal_flash.c ****   * @retval HAL Status
 464:Drivers/STM32F2xx_HAL_Driver/Src/stm32f2xx_hal_flash.c ****   */
 465:Drivers/STM32F2xx_HAL_Driver/Src/stm32f2xx_hal_flash.c **** HAL_StatusTypeDef HAL_FLASH_Lock(void)
 466:Drivers/STM32F2xx_HAL_Driver/Src/stm32f2xx_hal_flash.c **** {
 467:Drivers/STM32F2xx_HAL_Driver/Src/stm32f2xx_hal_flash.c ****   /* Set the LOCK Bit to lock the FLASH Registers access */
 468:Drivers/STM32F2xx_HAL_Driver/Src/stm32f2xx_hal_flash.c ****   FLASH->CR |= FLASH_CR_LOCK;
 469:Drivers/STM32F2xx_HAL_Driver/Src/stm32f2xx_hal_flash.c ****   
 470:Drivers/STM32F2xx_HAL_Driver/Src/stm32f2xx_hal_flash.c ****   return HAL_OK;  
 471:Drivers/STM32F2xx_HAL_Driver/Src/stm32f2xx_hal_flash.c **** }
 472:Drivers/STM32F2xx_HAL_Driver/Src/stm32f2xx_hal_flash.c **** 
 473:Drivers/STM32F2xx_HAL_Driver/Src/stm32f2xx_hal_flash.c **** /**
 474:Drivers/STM32F2xx_HAL_Driver/Src/stm32f2xx_hal_flash.c ****   * @brief  Unlock the FLASH Option Control Registers access.
 475:Drivers/STM32F2xx_HAL_Driver/Src/stm32f2xx_hal_flash.c ****   * @retval HAL Status
 476:Drivers/STM32F2xx_HAL_Driver/Src/stm32f2xx_hal_flash.c ****   */
 477:Drivers/STM32F2xx_HAL_Driver/Src/stm32f2xx_hal_flash.c **** HAL_StatusTypeDef HAL_FLASH_OB_Unlock(void)
 478:Drivers/STM32F2xx_HAL_Driver/Src/stm32f2xx_hal_flash.c **** {
 479:Drivers/STM32F2xx_HAL_Driver/Src/stm32f2xx_hal_flash.c ****   if((FLASH->OPTCR & FLASH_OPTCR_OPTLOCK) != RESET)
 480:Drivers/STM32F2xx_HAL_Driver/Src/stm32f2xx_hal_flash.c ****   {
 481:Drivers/STM32F2xx_HAL_Driver/Src/stm32f2xx_hal_flash.c ****     /* Authorizes the Option Byte register programming */
 482:Drivers/STM32F2xx_HAL_Driver/Src/stm32f2xx_hal_flash.c ****     FLASH->OPTKEYR = FLASH_OPT_KEY1;
 483:Drivers/STM32F2xx_HAL_Driver/Src/stm32f2xx_hal_flash.c ****     FLASH->OPTKEYR = FLASH_OPT_KEY2;
 484:Drivers/STM32F2xx_HAL_Driver/Src/stm32f2xx_hal_flash.c ****   }
 485:Drivers/STM32F2xx_HAL_Driver/Src/stm32f2xx_hal_flash.c ****   else
 486:Drivers/STM32F2xx_HAL_Driver/Src/stm32f2xx_hal_flash.c ****   {
 487:Drivers/STM32F2xx_HAL_Driver/Src/stm32f2xx_hal_flash.c ****     return HAL_ERROR;
 488:Drivers/STM32F2xx_HAL_Driver/Src/stm32f2xx_hal_flash.c ****   }  
 489:Drivers/STM32F2xx_HAL_Driver/Src/stm32f2xx_hal_flash.c ****   
 490:Drivers/STM32F2xx_HAL_Driver/Src/stm32f2xx_hal_flash.c ****   return HAL_OK;  
ARM GAS  /tmp/ccCndbbD.s 			page 10


 491:Drivers/STM32F2xx_HAL_Driver/Src/stm32f2xx_hal_flash.c **** }
 492:Drivers/STM32F2xx_HAL_Driver/Src/stm32f2xx_hal_flash.c **** 
 493:Drivers/STM32F2xx_HAL_Driver/Src/stm32f2xx_hal_flash.c **** /**
 494:Drivers/STM32F2xx_HAL_Driver/Src/stm32f2xx_hal_flash.c ****   * @brief  Lock the FLASH Option Control Registers access.
 495:Drivers/STM32F2xx_HAL_Driver/Src/stm32f2xx_hal_flash.c ****   * @retval HAL Status 
 496:Drivers/STM32F2xx_HAL_Driver/Src/stm32f2xx_hal_flash.c ****   */
 497:Drivers/STM32F2xx_HAL_Driver/Src/stm32f2xx_hal_flash.c **** HAL_StatusTypeDef HAL_FLASH_OB_Lock(void)
 498:Drivers/STM32F2xx_HAL_Driver/Src/stm32f2xx_hal_flash.c **** {
 499:Drivers/STM32F2xx_HAL_Driver/Src/stm32f2xx_hal_flash.c ****   /* Set the OPTLOCK Bit to lock the FLASH Option Byte Registers access */
 500:Drivers/STM32F2xx_HAL_Driver/Src/stm32f2xx_hal_flash.c ****   FLASH->OPTCR |= FLASH_OPTCR_OPTLOCK;
 501:Drivers/STM32F2xx_HAL_Driver/Src/stm32f2xx_hal_flash.c ****   
 502:Drivers/STM32F2xx_HAL_Driver/Src/stm32f2xx_hal_flash.c ****   return HAL_OK;  
 503:Drivers/STM32F2xx_HAL_Driver/Src/stm32f2xx_hal_flash.c **** }
 504:Drivers/STM32F2xx_HAL_Driver/Src/stm32f2xx_hal_flash.c **** 
 505:Drivers/STM32F2xx_HAL_Driver/Src/stm32f2xx_hal_flash.c **** /**
 506:Drivers/STM32F2xx_HAL_Driver/Src/stm32f2xx_hal_flash.c ****   * @brief  Launch the option byte loading.
 507:Drivers/STM32F2xx_HAL_Driver/Src/stm32f2xx_hal_flash.c ****   * @retval HAL Status
 508:Drivers/STM32F2xx_HAL_Driver/Src/stm32f2xx_hal_flash.c ****   */
 509:Drivers/STM32F2xx_HAL_Driver/Src/stm32f2xx_hal_flash.c **** HAL_StatusTypeDef HAL_FLASH_OB_Launch(void)
 510:Drivers/STM32F2xx_HAL_Driver/Src/stm32f2xx_hal_flash.c **** {
 511:Drivers/STM32F2xx_HAL_Driver/Src/stm32f2xx_hal_flash.c ****   /* Set the OPTSTRT bit in OPTCR register */
 512:Drivers/STM32F2xx_HAL_Driver/Src/stm32f2xx_hal_flash.c ****   *(__IO uint8_t *)OPTCR_BYTE0_ADDRESS |= FLASH_OPTCR_OPTSTRT;
 513:Drivers/STM32F2xx_HAL_Driver/Src/stm32f2xx_hal_flash.c **** 
 514:Drivers/STM32F2xx_HAL_Driver/Src/stm32f2xx_hal_flash.c ****   /* Wait for last operation to be completed */
 515:Drivers/STM32F2xx_HAL_Driver/Src/stm32f2xx_hal_flash.c ****   return(FLASH_WaitForLastOperation((uint32_t)FLASH_TIMEOUT_VALUE)); 
 516:Drivers/STM32F2xx_HAL_Driver/Src/stm32f2xx_hal_flash.c **** }
 517:Drivers/STM32F2xx_HAL_Driver/Src/stm32f2xx_hal_flash.c **** 
 518:Drivers/STM32F2xx_HAL_Driver/Src/stm32f2xx_hal_flash.c **** /**
 519:Drivers/STM32F2xx_HAL_Driver/Src/stm32f2xx_hal_flash.c ****   * @}
 520:Drivers/STM32F2xx_HAL_Driver/Src/stm32f2xx_hal_flash.c ****   */
 521:Drivers/STM32F2xx_HAL_Driver/Src/stm32f2xx_hal_flash.c **** 
 522:Drivers/STM32F2xx_HAL_Driver/Src/stm32f2xx_hal_flash.c **** /** @defgroup FLASH_Exported_Functions_Group3 Peripheral State and Errors functions 
 523:Drivers/STM32F2xx_HAL_Driver/Src/stm32f2xx_hal_flash.c ****  *  @brief   Peripheral Errors functions 
 524:Drivers/STM32F2xx_HAL_Driver/Src/stm32f2xx_hal_flash.c ****  *
 525:Drivers/STM32F2xx_HAL_Driver/Src/stm32f2xx_hal_flash.c **** @verbatim   
 526:Drivers/STM32F2xx_HAL_Driver/Src/stm32f2xx_hal_flash.c ****  ===============================================================================
 527:Drivers/STM32F2xx_HAL_Driver/Src/stm32f2xx_hal_flash.c ****                 ##### Peripheral Errors functions #####
 528:Drivers/STM32F2xx_HAL_Driver/Src/stm32f2xx_hal_flash.c ****  ===============================================================================  
 529:Drivers/STM32F2xx_HAL_Driver/Src/stm32f2xx_hal_flash.c ****     [..]
 530:Drivers/STM32F2xx_HAL_Driver/Src/stm32f2xx_hal_flash.c ****     This subsection permits to get in run-time Errors of the FLASH peripheral.
 531:Drivers/STM32F2xx_HAL_Driver/Src/stm32f2xx_hal_flash.c **** 
 532:Drivers/STM32F2xx_HAL_Driver/Src/stm32f2xx_hal_flash.c **** @endverbatim
 533:Drivers/STM32F2xx_HAL_Driver/Src/stm32f2xx_hal_flash.c ****   * @{
 534:Drivers/STM32F2xx_HAL_Driver/Src/stm32f2xx_hal_flash.c ****   */
 535:Drivers/STM32F2xx_HAL_Driver/Src/stm32f2xx_hal_flash.c **** 
 536:Drivers/STM32F2xx_HAL_Driver/Src/stm32f2xx_hal_flash.c **** /**
 537:Drivers/STM32F2xx_HAL_Driver/Src/stm32f2xx_hal_flash.c ****   * @brief  Get the specific FLASH error flag.
 538:Drivers/STM32F2xx_HAL_Driver/Src/stm32f2xx_hal_flash.c ****   * @retval FLASH_ErrorCode: The returned value can be a combination of:
 539:Drivers/STM32F2xx_HAL_Driver/Src/stm32f2xx_hal_flash.c ****   *            @arg HAL_FLASH_ERROR_NONE: FLASH Programming Sequence error flag 
 540:Drivers/STM32F2xx_HAL_Driver/Src/stm32f2xx_hal_flash.c ****   *            @arg HAL_FLASH_ERROR_PGS: FLASH Programming Sequence error flag 
 541:Drivers/STM32F2xx_HAL_Driver/Src/stm32f2xx_hal_flash.c ****   *            @arg HAL_FLASH_ERROR_PGP: FLASH Programming Parallelism error flag  
 542:Drivers/STM32F2xx_HAL_Driver/Src/stm32f2xx_hal_flash.c ****   *            @arg HAL_FLASH_ERROR_PGA: FLASH Programming Alignment error flag
 543:Drivers/STM32F2xx_HAL_Driver/Src/stm32f2xx_hal_flash.c ****   *            @arg HAL_FLASH_ERROR_WRP: FLASH Write protected error flag
 544:Drivers/STM32F2xx_HAL_Driver/Src/stm32f2xx_hal_flash.c ****   *            @arg HAL_FLASH_ERROR_OPERATION: FLASH operation Error flag 
 545:Drivers/STM32F2xx_HAL_Driver/Src/stm32f2xx_hal_flash.c ****   */
 546:Drivers/STM32F2xx_HAL_Driver/Src/stm32f2xx_hal_flash.c **** uint32_t HAL_FLASH_GetError(void)
 547:Drivers/STM32F2xx_HAL_Driver/Src/stm32f2xx_hal_flash.c **** { 
ARM GAS  /tmp/ccCndbbD.s 			page 11


 548:Drivers/STM32F2xx_HAL_Driver/Src/stm32f2xx_hal_flash.c ****    return pFlash.ErrorCode;
 549:Drivers/STM32F2xx_HAL_Driver/Src/stm32f2xx_hal_flash.c **** }  
 550:Drivers/STM32F2xx_HAL_Driver/Src/stm32f2xx_hal_flash.c ****   
 551:Drivers/STM32F2xx_HAL_Driver/Src/stm32f2xx_hal_flash.c **** /**
 552:Drivers/STM32F2xx_HAL_Driver/Src/stm32f2xx_hal_flash.c ****   * @}
 553:Drivers/STM32F2xx_HAL_Driver/Src/stm32f2xx_hal_flash.c ****   */    
 554:Drivers/STM32F2xx_HAL_Driver/Src/stm32f2xx_hal_flash.c **** 
 555:Drivers/STM32F2xx_HAL_Driver/Src/stm32f2xx_hal_flash.c **** /**
 556:Drivers/STM32F2xx_HAL_Driver/Src/stm32f2xx_hal_flash.c ****   * @brief  Wait for a FLASH operation to complete.
 557:Drivers/STM32F2xx_HAL_Driver/Src/stm32f2xx_hal_flash.c ****   * @param  Timeout maximum flash operationtimeout
 558:Drivers/STM32F2xx_HAL_Driver/Src/stm32f2xx_hal_flash.c ****   * @retval HAL Status
 559:Drivers/STM32F2xx_HAL_Driver/Src/stm32f2xx_hal_flash.c ****   */
 560:Drivers/STM32F2xx_HAL_Driver/Src/stm32f2xx_hal_flash.c **** HAL_StatusTypeDef FLASH_WaitForLastOperation(uint32_t Timeout)
 561:Drivers/STM32F2xx_HAL_Driver/Src/stm32f2xx_hal_flash.c **** { 
 562:Drivers/STM32F2xx_HAL_Driver/Src/stm32f2xx_hal_flash.c ****   uint32_t tickstart = 0U;
 563:Drivers/STM32F2xx_HAL_Driver/Src/stm32f2xx_hal_flash.c ****   
 564:Drivers/STM32F2xx_HAL_Driver/Src/stm32f2xx_hal_flash.c ****   /* Clear Error Code */
 565:Drivers/STM32F2xx_HAL_Driver/Src/stm32f2xx_hal_flash.c ****   pFlash.ErrorCode = HAL_FLASH_ERROR_NONE;
 566:Drivers/STM32F2xx_HAL_Driver/Src/stm32f2xx_hal_flash.c ****   
 567:Drivers/STM32F2xx_HAL_Driver/Src/stm32f2xx_hal_flash.c ****   /* Wait for the FLASH operation to complete by polling on BUSY flag to be reset.
 568:Drivers/STM32F2xx_HAL_Driver/Src/stm32f2xx_hal_flash.c ****      Even if the FLASH operation fails, the BUSY flag will be reset and an error
 569:Drivers/STM32F2xx_HAL_Driver/Src/stm32f2xx_hal_flash.c ****      flag will be set */
 570:Drivers/STM32F2xx_HAL_Driver/Src/stm32f2xx_hal_flash.c ****   /* Get tick */
 571:Drivers/STM32F2xx_HAL_Driver/Src/stm32f2xx_hal_flash.c ****   tickstart = HAL_GetTick();
 572:Drivers/STM32F2xx_HAL_Driver/Src/stm32f2xx_hal_flash.c **** 
 573:Drivers/STM32F2xx_HAL_Driver/Src/stm32f2xx_hal_flash.c ****   while(__HAL_FLASH_GET_FLAG(FLASH_FLAG_BSY) != RESET) 
 574:Drivers/STM32F2xx_HAL_Driver/Src/stm32f2xx_hal_flash.c ****   { 
 575:Drivers/STM32F2xx_HAL_Driver/Src/stm32f2xx_hal_flash.c ****     if(Timeout != HAL_MAX_DELAY)
 576:Drivers/STM32F2xx_HAL_Driver/Src/stm32f2xx_hal_flash.c ****     {
 577:Drivers/STM32F2xx_HAL_Driver/Src/stm32f2xx_hal_flash.c ****       if((Timeout == 0U)||((HAL_GetTick() - tickstart ) > Timeout))
 578:Drivers/STM32F2xx_HAL_Driver/Src/stm32f2xx_hal_flash.c ****       {
 579:Drivers/STM32F2xx_HAL_Driver/Src/stm32f2xx_hal_flash.c ****         return HAL_TIMEOUT;
 580:Drivers/STM32F2xx_HAL_Driver/Src/stm32f2xx_hal_flash.c ****       }
 581:Drivers/STM32F2xx_HAL_Driver/Src/stm32f2xx_hal_flash.c ****     } 
 582:Drivers/STM32F2xx_HAL_Driver/Src/stm32f2xx_hal_flash.c ****   }
 583:Drivers/STM32F2xx_HAL_Driver/Src/stm32f2xx_hal_flash.c **** 
 584:Drivers/STM32F2xx_HAL_Driver/Src/stm32f2xx_hal_flash.c ****   /* Check FLASH End of Operation flag  */
 585:Drivers/STM32F2xx_HAL_Driver/Src/stm32f2xx_hal_flash.c ****   if (__HAL_FLASH_GET_FLAG(FLASH_FLAG_EOP) != RESET)
 586:Drivers/STM32F2xx_HAL_Driver/Src/stm32f2xx_hal_flash.c ****   {
 587:Drivers/STM32F2xx_HAL_Driver/Src/stm32f2xx_hal_flash.c ****     /* Clear FLASH End of Operation pending bit */
 588:Drivers/STM32F2xx_HAL_Driver/Src/stm32f2xx_hal_flash.c ****     __HAL_FLASH_CLEAR_FLAG(FLASH_FLAG_EOP);
 589:Drivers/STM32F2xx_HAL_Driver/Src/stm32f2xx_hal_flash.c ****   }
 590:Drivers/STM32F2xx_HAL_Driver/Src/stm32f2xx_hal_flash.c ****   
 591:Drivers/STM32F2xx_HAL_Driver/Src/stm32f2xx_hal_flash.c ****   if(__HAL_FLASH_GET_FLAG((FLASH_FLAG_OPERR | FLASH_FLAG_WRPERR | FLASH_FLAG_PGAERR | \
 592:Drivers/STM32F2xx_HAL_Driver/Src/stm32f2xx_hal_flash.c ****                            FLASH_FLAG_PGPERR | FLASH_FLAG_PGSERR)) != RESET)
 593:Drivers/STM32F2xx_HAL_Driver/Src/stm32f2xx_hal_flash.c ****   {
 594:Drivers/STM32F2xx_HAL_Driver/Src/stm32f2xx_hal_flash.c ****     /*Save the error code*/
 595:Drivers/STM32F2xx_HAL_Driver/Src/stm32f2xx_hal_flash.c ****     FLASH_SetErrorCode();
 596:Drivers/STM32F2xx_HAL_Driver/Src/stm32f2xx_hal_flash.c ****     return HAL_ERROR;
 597:Drivers/STM32F2xx_HAL_Driver/Src/stm32f2xx_hal_flash.c ****   }
 598:Drivers/STM32F2xx_HAL_Driver/Src/stm32f2xx_hal_flash.c **** 
 599:Drivers/STM32F2xx_HAL_Driver/Src/stm32f2xx_hal_flash.c ****   /* If there is no error flag set */
 600:Drivers/STM32F2xx_HAL_Driver/Src/stm32f2xx_hal_flash.c ****   return HAL_OK;
 601:Drivers/STM32F2xx_HAL_Driver/Src/stm32f2xx_hal_flash.c ****   
 602:Drivers/STM32F2xx_HAL_Driver/Src/stm32f2xx_hal_flash.c **** }  
 603:Drivers/STM32F2xx_HAL_Driver/Src/stm32f2xx_hal_flash.c **** 
 604:Drivers/STM32F2xx_HAL_Driver/Src/stm32f2xx_hal_flash.c **** /**
ARM GAS  /tmp/ccCndbbD.s 			page 12


 605:Drivers/STM32F2xx_HAL_Driver/Src/stm32f2xx_hal_flash.c ****   * @brief  Program a double word (64-bit) at a specified address.
 606:Drivers/STM32F2xx_HAL_Driver/Src/stm32f2xx_hal_flash.c ****   * @note   This function must be used when the device voltage range is from
 607:Drivers/STM32F2xx_HAL_Driver/Src/stm32f2xx_hal_flash.c ****   *         2.7V to 3.6V and an External Vpp in the range 7V to 9V.
 608:Drivers/STM32F2xx_HAL_Driver/Src/stm32f2xx_hal_flash.c ****   *
 609:Drivers/STM32F2xx_HAL_Driver/Src/stm32f2xx_hal_flash.c ****   * @note   If an erase and a program operations are requested simultaneously,    
 610:Drivers/STM32F2xx_HAL_Driver/Src/stm32f2xx_hal_flash.c ****   *         the erase operation is performed before the program one.
 611:Drivers/STM32F2xx_HAL_Driver/Src/stm32f2xx_hal_flash.c ****   *  
 612:Drivers/STM32F2xx_HAL_Driver/Src/stm32f2xx_hal_flash.c ****   * @param  Address specifies the address to be programmed.
 613:Drivers/STM32F2xx_HAL_Driver/Src/stm32f2xx_hal_flash.c ****   * @param  Data specifies the data to be programmed.
 614:Drivers/STM32F2xx_HAL_Driver/Src/stm32f2xx_hal_flash.c ****   * @retval None
 615:Drivers/STM32F2xx_HAL_Driver/Src/stm32f2xx_hal_flash.c ****   */
 616:Drivers/STM32F2xx_HAL_Driver/Src/stm32f2xx_hal_flash.c **** static void FLASH_Program_DoubleWord(uint32_t Address, uint64_t Data)
 617:Drivers/STM32F2xx_HAL_Driver/Src/stm32f2xx_hal_flash.c **** {
  25              		.loc 1 617 0
  26              		.cfi_startproc
  27              		@ args = 0, pretend = 0, frame = 0
  28              		@ frame_needed = 0, uses_anonymous_args = 0
  29              		@ link register save eliminated.
  30              	.LVL0:
  31 0000 10B4     		push	{r4}
  32              	.LCFI0:
  33              		.cfi_def_cfa_offset 4
  34              		.cfi_offset 4, -4
 618:Drivers/STM32F2xx_HAL_Driver/Src/stm32f2xx_hal_flash.c ****   /* Check the parameters */
 619:Drivers/STM32F2xx_HAL_Driver/Src/stm32f2xx_hal_flash.c ****   assert_param(IS_FLASH_ADDRESS(Address));
 620:Drivers/STM32F2xx_HAL_Driver/Src/stm32f2xx_hal_flash.c ****   
 621:Drivers/STM32F2xx_HAL_Driver/Src/stm32f2xx_hal_flash.c ****   /* If the previous operation is completed, proceed to program the new data */
 622:Drivers/STM32F2xx_HAL_Driver/Src/stm32f2xx_hal_flash.c ****   CLEAR_BIT(FLASH->CR, FLASH_CR_PSIZE);
  35              		.loc 1 622 0
  36 0002 0849     		ldr	r1, .L3
  37 0004 0C69     		ldr	r4, [r1, #16]
  38 0006 24F44074 		bic	r4, r4, #768
  39 000a 0C61     		str	r4, [r1, #16]
 623:Drivers/STM32F2xx_HAL_Driver/Src/stm32f2xx_hal_flash.c ****   FLASH->CR |= FLASH_PSIZE_DOUBLE_WORD;
  40              		.loc 1 623 0
  41 000c 0C69     		ldr	r4, [r1, #16]
  42 000e 44F44074 		orr	r4, r4, #768
  43 0012 0C61     		str	r4, [r1, #16]
 624:Drivers/STM32F2xx_HAL_Driver/Src/stm32f2xx_hal_flash.c ****   FLASH->CR |= FLASH_CR_PG;
  44              		.loc 1 624 0
  45 0014 0C69     		ldr	r4, [r1, #16]
  46 0016 44F00104 		orr	r4, r4, #1
  47 001a 0C61     		str	r4, [r1, #16]
 625:Drivers/STM32F2xx_HAL_Driver/Src/stm32f2xx_hal_flash.c **** 
 626:Drivers/STM32F2xx_HAL_Driver/Src/stm32f2xx_hal_flash.c ****   /* Program the double-word */
 627:Drivers/STM32F2xx_HAL_Driver/Src/stm32f2xx_hal_flash.c ****   *(__IO uint32_t*)Address = (uint32_t)Data;
  48              		.loc 1 627 0
  49 001c 0260     		str	r2, [r0]
 628:Drivers/STM32F2xx_HAL_Driver/Src/stm32f2xx_hal_flash.c ****   *(__IO uint32_t*)(Address+4) = (uint32_t)(Data >> 32);
  50              		.loc 1 628 0
  51 001e 4360     		str	r3, [r0, #4]
 629:Drivers/STM32F2xx_HAL_Driver/Src/stm32f2xx_hal_flash.c **** }
  52              		.loc 1 629 0
  53 0020 10BC     		pop	{r4}
  54              	.LCFI1:
  55              		.cfi_restore 4
  56              		.cfi_def_cfa_offset 0
ARM GAS  /tmp/ccCndbbD.s 			page 13


  57 0022 7047     		bx	lr
  58              	.L4:
  59              		.align	2
  60              	.L3:
  61 0024 003C0240 		.word	1073888256
  62              		.cfi_endproc
  63              	.LFE78:
  65              		.section	.text.FLASH_Program_Word,"ax",%progbits
  66              		.align	1
  67              		.syntax unified
  68              		.thumb
  69              		.thumb_func
  70              		.fpu softvfp
  72              	FLASH_Program_Word:
  73              	.LFB79:
 630:Drivers/STM32F2xx_HAL_Driver/Src/stm32f2xx_hal_flash.c **** 
 631:Drivers/STM32F2xx_HAL_Driver/Src/stm32f2xx_hal_flash.c **** /**
 632:Drivers/STM32F2xx_HAL_Driver/Src/stm32f2xx_hal_flash.c ****   * @brief  Program word (32-bit) at a specified address.
 633:Drivers/STM32F2xx_HAL_Driver/Src/stm32f2xx_hal_flash.c ****   * @note   This function must be used when the device voltage range is from
 634:Drivers/STM32F2xx_HAL_Driver/Src/stm32f2xx_hal_flash.c ****   *         2.7V to 3.6V.
 635:Drivers/STM32F2xx_HAL_Driver/Src/stm32f2xx_hal_flash.c ****   *
 636:Drivers/STM32F2xx_HAL_Driver/Src/stm32f2xx_hal_flash.c ****   * @note   If an erase and a program operations are requested simultaneously,    
 637:Drivers/STM32F2xx_HAL_Driver/Src/stm32f2xx_hal_flash.c ****   *         the erase operation is performed before the program one.
 638:Drivers/STM32F2xx_HAL_Driver/Src/stm32f2xx_hal_flash.c ****   *  
 639:Drivers/STM32F2xx_HAL_Driver/Src/stm32f2xx_hal_flash.c ****   * @param  Address specifies the address to be programmed.
 640:Drivers/STM32F2xx_HAL_Driver/Src/stm32f2xx_hal_flash.c ****   * @param  Data specifies the data to be programmed.
 641:Drivers/STM32F2xx_HAL_Driver/Src/stm32f2xx_hal_flash.c ****   * @retval None
 642:Drivers/STM32F2xx_HAL_Driver/Src/stm32f2xx_hal_flash.c ****   */
 643:Drivers/STM32F2xx_HAL_Driver/Src/stm32f2xx_hal_flash.c **** static void FLASH_Program_Word(uint32_t Address, uint32_t Data)
 644:Drivers/STM32F2xx_HAL_Driver/Src/stm32f2xx_hal_flash.c **** {
  74              		.loc 1 644 0
  75              		.cfi_startproc
  76              		@ args = 0, pretend = 0, frame = 0
  77              		@ frame_needed = 0, uses_anonymous_args = 0
  78              		@ link register save eliminated.
  79              	.LVL1:
 645:Drivers/STM32F2xx_HAL_Driver/Src/stm32f2xx_hal_flash.c ****   /* Check the parameters */
 646:Drivers/STM32F2xx_HAL_Driver/Src/stm32f2xx_hal_flash.c ****   assert_param(IS_FLASH_ADDRESS(Address));
 647:Drivers/STM32F2xx_HAL_Driver/Src/stm32f2xx_hal_flash.c ****   
 648:Drivers/STM32F2xx_HAL_Driver/Src/stm32f2xx_hal_flash.c ****   /* If the previous operation is completed, proceed to program the new data */
 649:Drivers/STM32F2xx_HAL_Driver/Src/stm32f2xx_hal_flash.c ****   CLEAR_BIT(FLASH->CR, FLASH_CR_PSIZE);
  80              		.loc 1 649 0
  81 0000 074B     		ldr	r3, .L6
  82 0002 1A69     		ldr	r2, [r3, #16]
  83 0004 22F44072 		bic	r2, r2, #768
  84 0008 1A61     		str	r2, [r3, #16]
 650:Drivers/STM32F2xx_HAL_Driver/Src/stm32f2xx_hal_flash.c ****   FLASH->CR |= FLASH_PSIZE_WORD;
  85              		.loc 1 650 0
  86 000a 1A69     		ldr	r2, [r3, #16]
  87 000c 42F40072 		orr	r2, r2, #512
  88 0010 1A61     		str	r2, [r3, #16]
 651:Drivers/STM32F2xx_HAL_Driver/Src/stm32f2xx_hal_flash.c ****   FLASH->CR |= FLASH_CR_PG;
  89              		.loc 1 651 0
  90 0012 1A69     		ldr	r2, [r3, #16]
  91 0014 42F00102 		orr	r2, r2, #1
  92 0018 1A61     		str	r2, [r3, #16]
 652:Drivers/STM32F2xx_HAL_Driver/Src/stm32f2xx_hal_flash.c **** 
ARM GAS  /tmp/ccCndbbD.s 			page 14


 653:Drivers/STM32F2xx_HAL_Driver/Src/stm32f2xx_hal_flash.c ****   *(__IO uint32_t*)Address = Data;
  93              		.loc 1 653 0
  94 001a 0160     		str	r1, [r0]
 654:Drivers/STM32F2xx_HAL_Driver/Src/stm32f2xx_hal_flash.c **** }
  95              		.loc 1 654 0
  96 001c 7047     		bx	lr
  97              	.L7:
  98 001e 00BF     		.align	2
  99              	.L6:
 100 0020 003C0240 		.word	1073888256
 101              		.cfi_endproc
 102              	.LFE79:
 104              		.section	.text.FLASH_Program_HalfWord,"ax",%progbits
 105              		.align	1
 106              		.syntax unified
 107              		.thumb
 108              		.thumb_func
 109              		.fpu softvfp
 111              	FLASH_Program_HalfWord:
 112              	.LFB80:
 655:Drivers/STM32F2xx_HAL_Driver/Src/stm32f2xx_hal_flash.c **** 
 656:Drivers/STM32F2xx_HAL_Driver/Src/stm32f2xx_hal_flash.c **** /**
 657:Drivers/STM32F2xx_HAL_Driver/Src/stm32f2xx_hal_flash.c ****   * @brief  Program a half-word (16-bit) at a specified address.
 658:Drivers/STM32F2xx_HAL_Driver/Src/stm32f2xx_hal_flash.c ****   * @note   This function must be used when the device voltage range is from
 659:Drivers/STM32F2xx_HAL_Driver/Src/stm32f2xx_hal_flash.c ****   *         2.1V to 2.7V.
 660:Drivers/STM32F2xx_HAL_Driver/Src/stm32f2xx_hal_flash.c ****   *
 661:Drivers/STM32F2xx_HAL_Driver/Src/stm32f2xx_hal_flash.c ****   * @note   If an erase and a program operations are requested simultaneously,    
 662:Drivers/STM32F2xx_HAL_Driver/Src/stm32f2xx_hal_flash.c ****   *         the erase operation is performed before the program one.
 663:Drivers/STM32F2xx_HAL_Driver/Src/stm32f2xx_hal_flash.c ****   *  
 664:Drivers/STM32F2xx_HAL_Driver/Src/stm32f2xx_hal_flash.c ****   * @param  Address specifies the address to be programmed.
 665:Drivers/STM32F2xx_HAL_Driver/Src/stm32f2xx_hal_flash.c ****   * @param  Data specifies the data to be programmed.
 666:Drivers/STM32F2xx_HAL_Driver/Src/stm32f2xx_hal_flash.c ****   * @retval None
 667:Drivers/STM32F2xx_HAL_Driver/Src/stm32f2xx_hal_flash.c ****   */
 668:Drivers/STM32F2xx_HAL_Driver/Src/stm32f2xx_hal_flash.c **** static void FLASH_Program_HalfWord(uint32_t Address, uint16_t Data)
 669:Drivers/STM32F2xx_HAL_Driver/Src/stm32f2xx_hal_flash.c **** {
 113              		.loc 1 669 0
 114              		.cfi_startproc
 115              		@ args = 0, pretend = 0, frame = 0
 116              		@ frame_needed = 0, uses_anonymous_args = 0
 117              		@ link register save eliminated.
 118              	.LVL2:
 670:Drivers/STM32F2xx_HAL_Driver/Src/stm32f2xx_hal_flash.c ****   /* Check the parameters */
 671:Drivers/STM32F2xx_HAL_Driver/Src/stm32f2xx_hal_flash.c ****   assert_param(IS_FLASH_ADDRESS(Address));
 672:Drivers/STM32F2xx_HAL_Driver/Src/stm32f2xx_hal_flash.c ****   
 673:Drivers/STM32F2xx_HAL_Driver/Src/stm32f2xx_hal_flash.c ****   /* If the previous operation is completed, proceed to program the new data */
 674:Drivers/STM32F2xx_HAL_Driver/Src/stm32f2xx_hal_flash.c ****   CLEAR_BIT(FLASH->CR, FLASH_CR_PSIZE);
 119              		.loc 1 674 0
 120 0000 074B     		ldr	r3, .L9
 121 0002 1A69     		ldr	r2, [r3, #16]
 122 0004 22F44072 		bic	r2, r2, #768
 123 0008 1A61     		str	r2, [r3, #16]
 675:Drivers/STM32F2xx_HAL_Driver/Src/stm32f2xx_hal_flash.c ****   FLASH->CR |= FLASH_PSIZE_HALF_WORD;
 124              		.loc 1 675 0
 125 000a 1A69     		ldr	r2, [r3, #16]
 126 000c 42F48072 		orr	r2, r2, #256
 127 0010 1A61     		str	r2, [r3, #16]
 676:Drivers/STM32F2xx_HAL_Driver/Src/stm32f2xx_hal_flash.c ****   FLASH->CR |= FLASH_CR_PG;
ARM GAS  /tmp/ccCndbbD.s 			page 15


 128              		.loc 1 676 0
 129 0012 1A69     		ldr	r2, [r3, #16]
 130 0014 42F00102 		orr	r2, r2, #1
 131 0018 1A61     		str	r2, [r3, #16]
 677:Drivers/STM32F2xx_HAL_Driver/Src/stm32f2xx_hal_flash.c **** 
 678:Drivers/STM32F2xx_HAL_Driver/Src/stm32f2xx_hal_flash.c ****   *(__IO uint16_t*)Address = Data;
 132              		.loc 1 678 0
 133 001a 0180     		strh	r1, [r0]	@ movhi
 679:Drivers/STM32F2xx_HAL_Driver/Src/stm32f2xx_hal_flash.c **** }
 134              		.loc 1 679 0
 135 001c 7047     		bx	lr
 136              	.L10:
 137 001e 00BF     		.align	2
 138              	.L9:
 139 0020 003C0240 		.word	1073888256
 140              		.cfi_endproc
 141              	.LFE80:
 143              		.section	.text.FLASH_Program_Byte,"ax",%progbits
 144              		.align	1
 145              		.syntax unified
 146              		.thumb
 147              		.thumb_func
 148              		.fpu softvfp
 150              	FLASH_Program_Byte:
 151              	.LFB81:
 680:Drivers/STM32F2xx_HAL_Driver/Src/stm32f2xx_hal_flash.c **** 
 681:Drivers/STM32F2xx_HAL_Driver/Src/stm32f2xx_hal_flash.c **** /**
 682:Drivers/STM32F2xx_HAL_Driver/Src/stm32f2xx_hal_flash.c ****   * @brief  Program byte (8-bit) at a specified address.
 683:Drivers/STM32F2xx_HAL_Driver/Src/stm32f2xx_hal_flash.c ****   * @note   This function must be used when the device voltage range is from
 684:Drivers/STM32F2xx_HAL_Driver/Src/stm32f2xx_hal_flash.c ****   *         1.8V to 2.1V.
 685:Drivers/STM32F2xx_HAL_Driver/Src/stm32f2xx_hal_flash.c ****   *
 686:Drivers/STM32F2xx_HAL_Driver/Src/stm32f2xx_hal_flash.c ****   * @note   If an erase and a program operations are requested simultaneously,    
 687:Drivers/STM32F2xx_HAL_Driver/Src/stm32f2xx_hal_flash.c ****   *         the erase operation is performed before the program one.
 688:Drivers/STM32F2xx_HAL_Driver/Src/stm32f2xx_hal_flash.c ****   *  
 689:Drivers/STM32F2xx_HAL_Driver/Src/stm32f2xx_hal_flash.c ****   * @param  Address specifies the address to be programmed.
 690:Drivers/STM32F2xx_HAL_Driver/Src/stm32f2xx_hal_flash.c ****   * @param  Data specifies the data to be programmed.
 691:Drivers/STM32F2xx_HAL_Driver/Src/stm32f2xx_hal_flash.c ****   * @retval None
 692:Drivers/STM32F2xx_HAL_Driver/Src/stm32f2xx_hal_flash.c ****   */
 693:Drivers/STM32F2xx_HAL_Driver/Src/stm32f2xx_hal_flash.c **** static void FLASH_Program_Byte(uint32_t Address, uint8_t Data)
 694:Drivers/STM32F2xx_HAL_Driver/Src/stm32f2xx_hal_flash.c **** {
 152              		.loc 1 694 0
 153              		.cfi_startproc
 154              		@ args = 0, pretend = 0, frame = 0
 155              		@ frame_needed = 0, uses_anonymous_args = 0
 156              		@ link register save eliminated.
 157              	.LVL3:
 695:Drivers/STM32F2xx_HAL_Driver/Src/stm32f2xx_hal_flash.c ****   /* Check the parameters */
 696:Drivers/STM32F2xx_HAL_Driver/Src/stm32f2xx_hal_flash.c ****   assert_param(IS_FLASH_ADDRESS(Address));
 697:Drivers/STM32F2xx_HAL_Driver/Src/stm32f2xx_hal_flash.c ****   
 698:Drivers/STM32F2xx_HAL_Driver/Src/stm32f2xx_hal_flash.c ****   /* If the previous operation is completed, proceed to program the new data */
 699:Drivers/STM32F2xx_HAL_Driver/Src/stm32f2xx_hal_flash.c ****   CLEAR_BIT(FLASH->CR, FLASH_CR_PSIZE);
 158              		.loc 1 699 0
 159 0000 064B     		ldr	r3, .L12
 160 0002 1A69     		ldr	r2, [r3, #16]
 161 0004 22F44072 		bic	r2, r2, #768
 162 0008 1A61     		str	r2, [r3, #16]
 700:Drivers/STM32F2xx_HAL_Driver/Src/stm32f2xx_hal_flash.c ****   FLASH->CR |= FLASH_PSIZE_BYTE;
ARM GAS  /tmp/ccCndbbD.s 			page 16


 163              		.loc 1 700 0
 164 000a 1A69     		ldr	r2, [r3, #16]
 165 000c 1A61     		str	r2, [r3, #16]
 701:Drivers/STM32F2xx_HAL_Driver/Src/stm32f2xx_hal_flash.c ****   FLASH->CR |= FLASH_CR_PG;
 166              		.loc 1 701 0
 167 000e 1A69     		ldr	r2, [r3, #16]
 168 0010 42F00102 		orr	r2, r2, #1
 169 0014 1A61     		str	r2, [r3, #16]
 702:Drivers/STM32F2xx_HAL_Driver/Src/stm32f2xx_hal_flash.c **** 
 703:Drivers/STM32F2xx_HAL_Driver/Src/stm32f2xx_hal_flash.c ****   *(__IO uint8_t*)Address = Data;
 170              		.loc 1 703 0
 171 0016 0170     		strb	r1, [r0]
 704:Drivers/STM32F2xx_HAL_Driver/Src/stm32f2xx_hal_flash.c **** }
 172              		.loc 1 704 0
 173 0018 7047     		bx	lr
 174              	.L13:
 175 001a 00BF     		.align	2
 176              	.L12:
 177 001c 003C0240 		.word	1073888256
 178              		.cfi_endproc
 179              	.LFE81:
 181              		.section	.text.FLASH_SetErrorCode,"ax",%progbits
 182              		.align	1
 183              		.syntax unified
 184              		.thumb
 185              		.thumb_func
 186              		.fpu softvfp
 188              	FLASH_SetErrorCode:
 189              	.LFB82:
 705:Drivers/STM32F2xx_HAL_Driver/Src/stm32f2xx_hal_flash.c **** 
 706:Drivers/STM32F2xx_HAL_Driver/Src/stm32f2xx_hal_flash.c **** /**
 707:Drivers/STM32F2xx_HAL_Driver/Src/stm32f2xx_hal_flash.c ****   * @brief  Set the specific FLASH error flag.
 708:Drivers/STM32F2xx_HAL_Driver/Src/stm32f2xx_hal_flash.c ****   * @retval None
 709:Drivers/STM32F2xx_HAL_Driver/Src/stm32f2xx_hal_flash.c ****   */
 710:Drivers/STM32F2xx_HAL_Driver/Src/stm32f2xx_hal_flash.c **** static void FLASH_SetErrorCode(void)
 711:Drivers/STM32F2xx_HAL_Driver/Src/stm32f2xx_hal_flash.c **** { 
 190              		.loc 1 711 0
 191              		.cfi_startproc
 192              		@ args = 0, pretend = 0, frame = 0
 193              		@ frame_needed = 0, uses_anonymous_args = 0
 194              		@ link register save eliminated.
 712:Drivers/STM32F2xx_HAL_Driver/Src/stm32f2xx_hal_flash.c ****   if(__HAL_FLASH_GET_FLAG(FLASH_FLAG_WRPERR) != RESET)
 195              		.loc 1 712 0
 196 0000 204B     		ldr	r3, .L20
 197 0002 DB68     		ldr	r3, [r3, #12]
 198 0004 13F0100F 		tst	r3, #16
 199 0008 07D0     		beq	.L15
 713:Drivers/STM32F2xx_HAL_Driver/Src/stm32f2xx_hal_flash.c ****   {
 714:Drivers/STM32F2xx_HAL_Driver/Src/stm32f2xx_hal_flash.c ****    pFlash.ErrorCode |= HAL_FLASH_ERROR_WRP;
 200              		.loc 1 714 0
 201 000a 1F4A     		ldr	r2, .L20+4
 202 000c D369     		ldr	r3, [r2, #28]
 203 000e 43F00803 		orr	r3, r3, #8
 204 0012 D361     		str	r3, [r2, #28]
 715:Drivers/STM32F2xx_HAL_Driver/Src/stm32f2xx_hal_flash.c ****    
 716:Drivers/STM32F2xx_HAL_Driver/Src/stm32f2xx_hal_flash.c ****    /* Clear FLASH write protection error pending bit */
 717:Drivers/STM32F2xx_HAL_Driver/Src/stm32f2xx_hal_flash.c ****    __HAL_FLASH_CLEAR_FLAG(FLASH_FLAG_WRPERR);
ARM GAS  /tmp/ccCndbbD.s 			page 17


 205              		.loc 1 717 0
 206 0014 1B4B     		ldr	r3, .L20
 207 0016 1022     		movs	r2, #16
 208 0018 DA60     		str	r2, [r3, #12]
 209              	.L15:
 718:Drivers/STM32F2xx_HAL_Driver/Src/stm32f2xx_hal_flash.c ****   }
 719:Drivers/STM32F2xx_HAL_Driver/Src/stm32f2xx_hal_flash.c ****   
 720:Drivers/STM32F2xx_HAL_Driver/Src/stm32f2xx_hal_flash.c ****   if(__HAL_FLASH_GET_FLAG(FLASH_FLAG_PGAERR) != RESET)
 210              		.loc 1 720 0
 211 001a 1A4B     		ldr	r3, .L20
 212 001c DB68     		ldr	r3, [r3, #12]
 213 001e 13F0200F 		tst	r3, #32
 214 0022 07D0     		beq	.L16
 721:Drivers/STM32F2xx_HAL_Driver/Src/stm32f2xx_hal_flash.c ****   {
 722:Drivers/STM32F2xx_HAL_Driver/Src/stm32f2xx_hal_flash.c ****    pFlash.ErrorCode |= HAL_FLASH_ERROR_PGA;
 215              		.loc 1 722 0
 216 0024 184A     		ldr	r2, .L20+4
 217 0026 D369     		ldr	r3, [r2, #28]
 218 0028 43F00403 		orr	r3, r3, #4
 219 002c D361     		str	r3, [r2, #28]
 723:Drivers/STM32F2xx_HAL_Driver/Src/stm32f2xx_hal_flash.c ****    
 724:Drivers/STM32F2xx_HAL_Driver/Src/stm32f2xx_hal_flash.c ****    /* Clear FLASH Programming alignment error pending bit */
 725:Drivers/STM32F2xx_HAL_Driver/Src/stm32f2xx_hal_flash.c ****    __HAL_FLASH_CLEAR_FLAG(FLASH_FLAG_PGAERR);
 220              		.loc 1 725 0
 221 002e 154B     		ldr	r3, .L20
 222 0030 2022     		movs	r2, #32
 223 0032 DA60     		str	r2, [r3, #12]
 224              	.L16:
 726:Drivers/STM32F2xx_HAL_Driver/Src/stm32f2xx_hal_flash.c ****   }
 727:Drivers/STM32F2xx_HAL_Driver/Src/stm32f2xx_hal_flash.c ****   
 728:Drivers/STM32F2xx_HAL_Driver/Src/stm32f2xx_hal_flash.c ****   if(__HAL_FLASH_GET_FLAG(FLASH_FLAG_PGPERR) != RESET)
 225              		.loc 1 728 0
 226 0034 134B     		ldr	r3, .L20
 227 0036 DB68     		ldr	r3, [r3, #12]
 228 0038 13F0400F 		tst	r3, #64
 229 003c 07D0     		beq	.L17
 729:Drivers/STM32F2xx_HAL_Driver/Src/stm32f2xx_hal_flash.c ****   {
 730:Drivers/STM32F2xx_HAL_Driver/Src/stm32f2xx_hal_flash.c ****     pFlash.ErrorCode |= HAL_FLASH_ERROR_PGP;
 230              		.loc 1 730 0
 231 003e 124A     		ldr	r2, .L20+4
 232 0040 D369     		ldr	r3, [r2, #28]
 233 0042 43F00203 		orr	r3, r3, #2
 234 0046 D361     		str	r3, [r2, #28]
 731:Drivers/STM32F2xx_HAL_Driver/Src/stm32f2xx_hal_flash.c ****     
 732:Drivers/STM32F2xx_HAL_Driver/Src/stm32f2xx_hal_flash.c ****     /* Clear FLASH Programming parallelism error pending bit */
 733:Drivers/STM32F2xx_HAL_Driver/Src/stm32f2xx_hal_flash.c ****     __HAL_FLASH_CLEAR_FLAG(FLASH_FLAG_PGPERR);
 235              		.loc 1 733 0
 236 0048 0E4B     		ldr	r3, .L20
 237 004a 4022     		movs	r2, #64
 238 004c DA60     		str	r2, [r3, #12]
 239              	.L17:
 734:Drivers/STM32F2xx_HAL_Driver/Src/stm32f2xx_hal_flash.c ****   }
 735:Drivers/STM32F2xx_HAL_Driver/Src/stm32f2xx_hal_flash.c ****   
 736:Drivers/STM32F2xx_HAL_Driver/Src/stm32f2xx_hal_flash.c ****   if(__HAL_FLASH_GET_FLAG(FLASH_FLAG_PGSERR) != RESET)
 240              		.loc 1 736 0
 241 004e 0D4B     		ldr	r3, .L20
 242 0050 DB68     		ldr	r3, [r3, #12]
ARM GAS  /tmp/ccCndbbD.s 			page 18


 243 0052 13F0800F 		tst	r3, #128
 244 0056 07D0     		beq	.L18
 737:Drivers/STM32F2xx_HAL_Driver/Src/stm32f2xx_hal_flash.c ****   {
 738:Drivers/STM32F2xx_HAL_Driver/Src/stm32f2xx_hal_flash.c ****     pFlash.ErrorCode |= HAL_FLASH_ERROR_PGS;
 245              		.loc 1 738 0
 246 0058 0B4A     		ldr	r2, .L20+4
 247 005a D369     		ldr	r3, [r2, #28]
 248 005c 43F00103 		orr	r3, r3, #1
 249 0060 D361     		str	r3, [r2, #28]
 739:Drivers/STM32F2xx_HAL_Driver/Src/stm32f2xx_hal_flash.c ****     
 740:Drivers/STM32F2xx_HAL_Driver/Src/stm32f2xx_hal_flash.c ****     /* Clear FLASH Programming sequence error pending bit */
 741:Drivers/STM32F2xx_HAL_Driver/Src/stm32f2xx_hal_flash.c ****     __HAL_FLASH_CLEAR_FLAG(FLASH_FLAG_PGSERR);
 250              		.loc 1 741 0
 251 0062 084B     		ldr	r3, .L20
 252 0064 8022     		movs	r2, #128
 253 0066 DA60     		str	r2, [r3, #12]
 254              	.L18:
 742:Drivers/STM32F2xx_HAL_Driver/Src/stm32f2xx_hal_flash.c ****   }
 743:Drivers/STM32F2xx_HAL_Driver/Src/stm32f2xx_hal_flash.c ****     
 744:Drivers/STM32F2xx_HAL_Driver/Src/stm32f2xx_hal_flash.c ****   if(__HAL_FLASH_GET_FLAG(FLASH_FLAG_OPERR) != RESET)
 255              		.loc 1 744 0
 256 0068 064B     		ldr	r3, .L20
 257 006a DB68     		ldr	r3, [r3, #12]
 258 006c 13F0020F 		tst	r3, #2
 259 0070 07D0     		beq	.L14
 745:Drivers/STM32F2xx_HAL_Driver/Src/stm32f2xx_hal_flash.c ****   {
 746:Drivers/STM32F2xx_HAL_Driver/Src/stm32f2xx_hal_flash.c ****     pFlash.ErrorCode |= HAL_FLASH_ERROR_OPERATION;
 260              		.loc 1 746 0
 261 0072 054A     		ldr	r2, .L20+4
 262 0074 D369     		ldr	r3, [r2, #28]
 263 0076 43F01003 		orr	r3, r3, #16
 264 007a D361     		str	r3, [r2, #28]
 747:Drivers/STM32F2xx_HAL_Driver/Src/stm32f2xx_hal_flash.c ****     
 748:Drivers/STM32F2xx_HAL_Driver/Src/stm32f2xx_hal_flash.c ****     /* Clear FLASH Operation error pending bit */
 749:Drivers/STM32F2xx_HAL_Driver/Src/stm32f2xx_hal_flash.c ****     __HAL_FLASH_CLEAR_FLAG(FLASH_FLAG_OPERR);
 265              		.loc 1 749 0
 266 007c 014B     		ldr	r3, .L20
 267 007e 0222     		movs	r2, #2
 268 0080 DA60     		str	r2, [r3, #12]
 269              	.L14:
 750:Drivers/STM32F2xx_HAL_Driver/Src/stm32f2xx_hal_flash.c ****   }
 751:Drivers/STM32F2xx_HAL_Driver/Src/stm32f2xx_hal_flash.c **** }
 270              		.loc 1 751 0
 271 0082 7047     		bx	lr
 272              	.L21:
 273              		.align	2
 274              	.L20:
 275 0084 003C0240 		.word	1073888256
 276 0088 00000000 		.word	pFlash
 277              		.cfi_endproc
 278              	.LFE82:
 280              		.section	.text.HAL_FLASH_Program_IT,"ax",%progbits
 281              		.align	1
 282              		.global	HAL_FLASH_Program_IT
 283              		.syntax unified
 284              		.thumb
 285              		.thumb_func
ARM GAS  /tmp/ccCndbbD.s 			page 19


 286              		.fpu softvfp
 288              	HAL_FLASH_Program_IT:
 289              	.LFB67:
 232:Drivers/STM32F2xx_HAL_Driver/Src/stm32f2xx_hal_flash.c ****   HAL_StatusTypeDef status = HAL_OK;
 290              		.loc 1 232 0
 291              		.cfi_startproc
 292              		@ args = 0, pretend = 0, frame = 0
 293              		@ frame_needed = 0, uses_anonymous_args = 0
 294              	.LVL4:
 295 0000 70B5     		push	{r4, r5, r6, lr}
 296              	.LCFI2:
 297              		.cfi_def_cfa_offset 16
 298              		.cfi_offset 4, -16
 299              		.cfi_offset 5, -12
 300              		.cfi_offset 6, -8
 301              		.cfi_offset 14, -4
 302              	.LVL5:
 236:Drivers/STM32F2xx_HAL_Driver/Src/stm32f2xx_hal_flash.c **** 
 303              		.loc 1 236 0
 304 0002 174D     		ldr	r5, .L32
 305 0004 2D7E     		ldrb	r5, [r5, #24]	@ zero_extendqisi2
 306 0006 012D     		cmp	r5, #1
 307 0008 28D0     		beq	.L27
 308 000a 0446     		mov	r4, r0
 309 000c 0846     		mov	r0, r1
 310              	.LVL6:
 236:Drivers/STM32F2xx_HAL_Driver/Src/stm32f2xx_hal_flash.c **** 
 311              		.loc 1 236 0 is_stmt 0 discriminator 2
 312 000e 1449     		ldr	r1, .L32
 313              	.LVL7:
 314 0010 0125     		movs	r5, #1
 315 0012 0D76     		strb	r5, [r1, #24]
 242:Drivers/STM32F2xx_HAL_Driver/Src/stm32f2xx_hal_flash.c ****   
 316              		.loc 1 242 0 is_stmt 1 discriminator 2
 317 0014 134D     		ldr	r5, .L32+4
 318 0016 2E69     		ldr	r6, [r5, #16]
 319 0018 46F08076 		orr	r6, r6, #16777216
 320 001c 2E61     		str	r6, [r5, #16]
 245:Drivers/STM32F2xx_HAL_Driver/Src/stm32f2xx_hal_flash.c **** 
 321              		.loc 1 245 0 discriminator 2
 322 001e 2E69     		ldr	r6, [r5, #16]
 323 0020 46F00076 		orr	r6, r6, #33554432
 324 0024 2E61     		str	r6, [r5, #16]
 247:Drivers/STM32F2xx_HAL_Driver/Src/stm32f2xx_hal_flash.c ****   pFlash.Address = Address;
 325              		.loc 1 247 0 discriminator 2
 326 0026 0325     		movs	r5, #3
 327 0028 0D70     		strb	r5, [r1]
 248:Drivers/STM32F2xx_HAL_Driver/Src/stm32f2xx_hal_flash.c **** 
 328              		.loc 1 248 0 discriminator 2
 329 002a 4861     		str	r0, [r1, #20]
 250:Drivers/STM32F2xx_HAL_Driver/Src/stm32f2xx_hal_flash.c ****   {
 330              		.loc 1 250 0 discriminator 2
 331 002c 3CB1     		cbz	r4, .L29
 255:Drivers/STM32F2xx_HAL_Driver/Src/stm32f2xx_hal_flash.c ****   {
 332              		.loc 1 255 0
 333 002e 012C     		cmp	r4, #1
 334 0030 0AD0     		beq	.L30
ARM GAS  /tmp/ccCndbbD.s 			page 20


 260:Drivers/STM32F2xx_HAL_Driver/Src/stm32f2xx_hal_flash.c ****   {
 335              		.loc 1 260 0
 336 0032 022C     		cmp	r4, #2
 337 0034 0DD0     		beq	.L31
 268:Drivers/STM32F2xx_HAL_Driver/Src/stm32f2xx_hal_flash.c ****   }
 338              		.loc 1 268 0
 339 0036 FFF7FEFF 		bl	FLASH_Program_DoubleWord
 340              	.LVL8:
 271:Drivers/STM32F2xx_HAL_Driver/Src/stm32f2xx_hal_flash.c **** }
 341              		.loc 1 271 0
 342 003a 0020     		movs	r0, #0
 343              	.LVL9:
 344              	.L23:
 272:Drivers/STM32F2xx_HAL_Driver/Src/stm32f2xx_hal_flash.c **** 
 345              		.loc 1 272 0
 346 003c 70BD     		pop	{r4, r5, r6, pc}
 347              	.LVL10:
 348              	.L29:
 253:Drivers/STM32F2xx_HAL_Driver/Src/stm32f2xx_hal_flash.c ****   }
 349              		.loc 1 253 0
 350 003e D1B2     		uxtb	r1, r2
 351 0040 FFF7FEFF 		bl	FLASH_Program_Byte
 352              	.LVL11:
 271:Drivers/STM32F2xx_HAL_Driver/Src/stm32f2xx_hal_flash.c **** }
 353              		.loc 1 271 0
 354 0044 0020     		movs	r0, #0
 355 0046 F9E7     		b	.L23
 356              	.LVL12:
 357              	.L30:
 258:Drivers/STM32F2xx_HAL_Driver/Src/stm32f2xx_hal_flash.c ****   }
 358              		.loc 1 258 0
 359 0048 91B2     		uxth	r1, r2
 360 004a FFF7FEFF 		bl	FLASH_Program_HalfWord
 361              	.LVL13:
 271:Drivers/STM32F2xx_HAL_Driver/Src/stm32f2xx_hal_flash.c **** }
 362              		.loc 1 271 0
 363 004e 0020     		movs	r0, #0
 364 0050 F4E7     		b	.L23
 365              	.LVL14:
 366              	.L31:
 263:Drivers/STM32F2xx_HAL_Driver/Src/stm32f2xx_hal_flash.c ****   }
 367              		.loc 1 263 0
 368 0052 1146     		mov	r1, r2
 369 0054 FFF7FEFF 		bl	FLASH_Program_Word
 370              	.LVL15:
 271:Drivers/STM32F2xx_HAL_Driver/Src/stm32f2xx_hal_flash.c **** }
 371              		.loc 1 271 0
 372 0058 0020     		movs	r0, #0
 373 005a EFE7     		b	.L23
 374              	.LVL16:
 375              	.L27:
 236:Drivers/STM32F2xx_HAL_Driver/Src/stm32f2xx_hal_flash.c **** 
 376              		.loc 1 236 0
 377 005c 0220     		movs	r0, #2
 378              	.LVL17:
 379 005e EDE7     		b	.L23
 380              	.L33:
ARM GAS  /tmp/ccCndbbD.s 			page 21


 381              		.align	2
 382              	.L32:
 383 0060 00000000 		.word	pFlash
 384 0064 003C0240 		.word	1073888256
 385              		.cfi_endproc
 386              	.LFE67:
 388              		.section	.text.HAL_FLASH_EndOfOperationCallback,"ax",%progbits
 389              		.align	1
 390              		.weak	HAL_FLASH_EndOfOperationCallback
 391              		.syntax unified
 392              		.thumb
 393              		.thumb_func
 394              		.fpu softvfp
 396              	HAL_FLASH_EndOfOperationCallback:
 397              	.LFB69:
 397:Drivers/STM32F2xx_HAL_Driver/Src/stm32f2xx_hal_flash.c ****   /* Prevent unused argument(s) compilation warning */
 398              		.loc 1 397 0
 399              		.cfi_startproc
 400              		@ args = 0, pretend = 0, frame = 0
 401              		@ frame_needed = 0, uses_anonymous_args = 0
 402              		@ link register save eliminated.
 403              	.LVL18:
 403:Drivers/STM32F2xx_HAL_Driver/Src/stm32f2xx_hal_flash.c **** 
 404              		.loc 1 403 0
 405 0000 7047     		bx	lr
 406              		.cfi_endproc
 407              	.LFE69:
 409              		.section	.text.HAL_FLASH_OperationErrorCallback,"ax",%progbits
 410              		.align	1
 411              		.weak	HAL_FLASH_OperationErrorCallback
 412              		.syntax unified
 413              		.thumb
 414              		.thumb_func
 415              		.fpu softvfp
 417              	HAL_FLASH_OperationErrorCallback:
 418              	.LFB70:
 414:Drivers/STM32F2xx_HAL_Driver/Src/stm32f2xx_hal_flash.c ****   /* Prevent unused argument(s) compilation warning */
 419              		.loc 1 414 0
 420              		.cfi_startproc
 421              		@ args = 0, pretend = 0, frame = 0
 422              		@ frame_needed = 0, uses_anonymous_args = 0
 423              		@ link register save eliminated.
 424              	.LVL19:
 420:Drivers/STM32F2xx_HAL_Driver/Src/stm32f2xx_hal_flash.c **** 
 425              		.loc 1 420 0
 426 0000 7047     		bx	lr
 427              		.cfi_endproc
 428              	.LFE70:
 430              		.section	.text.HAL_FLASH_IRQHandler,"ax",%progbits
 431              		.align	1
 432              		.global	HAL_FLASH_IRQHandler
 433              		.syntax unified
 434              		.thumb
 435              		.thumb_func
 436              		.fpu softvfp
 438              	HAL_FLASH_IRQHandler:
 439              	.LFB68:
ARM GAS  /tmp/ccCndbbD.s 			page 22


 279:Drivers/STM32F2xx_HAL_Driver/Src/stm32f2xx_hal_flash.c ****   uint32_t addresstmp = 0U;
 440              		.loc 1 279 0
 441              		.cfi_startproc
 442              		@ args = 0, pretend = 0, frame = 0
 443              		@ frame_needed = 0, uses_anonymous_args = 0
 444 0000 10B5     		push	{r4, lr}
 445              	.LCFI3:
 446              		.cfi_def_cfa_offset 8
 447              		.cfi_offset 4, -8
 448              		.cfi_offset 14, -4
 449              	.LVL20:
 283:Drivers/STM32F2xx_HAL_Driver/Src/stm32f2xx_hal_flash.c ****     FLASH_FLAG_PGPERR | FLASH_FLAG_PGSERR )) != RESET)
 450              		.loc 1 283 0
 451 0002 3A4B     		ldr	r3, .L52
 452 0004 DB68     		ldr	r3, [r3, #12]
 453 0006 13F0F20F 		tst	r3, #242
 454 000a 13D0     		beq	.L37
 286:Drivers/STM32F2xx_HAL_Driver/Src/stm32f2xx_hal_flash.c ****     {
 455              		.loc 1 286 0
 456 000c 384B     		ldr	r3, .L52+4
 457 000e 1B78     		ldrb	r3, [r3]	@ zero_extendqisi2
 458 0010 DBB2     		uxtb	r3, r3
 459 0012 012B     		cmp	r3, #1
 460 0014 3BD0     		beq	.L48
 292:Drivers/STM32F2xx_HAL_Driver/Src/stm32f2xx_hal_flash.c ****     {
 461              		.loc 1 292 0
 462 0016 364B     		ldr	r3, .L52+4
 463 0018 1B78     		ldrb	r3, [r3]	@ zero_extendqisi2
 464 001a DBB2     		uxtb	r3, r3
 465 001c 022B     		cmp	r3, #2
 466 001e 3CD0     		beq	.L49
 300:Drivers/STM32F2xx_HAL_Driver/Src/stm32f2xx_hal_flash.c ****     }
 467              		.loc 1 300 0
 468 0020 334B     		ldr	r3, .L52+4
 469 0022 5C69     		ldr	r4, [r3, #20]
 470              	.LVL21:
 471              	.L39:
 304:Drivers/STM32F2xx_HAL_Driver/Src/stm32f2xx_hal_flash.c ****     
 472              		.loc 1 304 0
 473 0024 FFF7FEFF 		bl	FLASH_SetErrorCode
 474              	.LVL22:
 307:Drivers/STM32F2xx_HAL_Driver/Src/stm32f2xx_hal_flash.c ****     
 475              		.loc 1 307 0
 476 0028 2046     		mov	r0, r4
 477 002a FFF7FEFF 		bl	HAL_FLASH_OperationErrorCallback
 478              	.LVL23:
 310:Drivers/STM32F2xx_HAL_Driver/Src/stm32f2xx_hal_flash.c ****   }
 479              		.loc 1 310 0
 480 002e 304B     		ldr	r3, .L52+4
 481 0030 0022     		movs	r2, #0
 482 0032 1A70     		strb	r2, [r3]
 483              	.LVL24:
 484              	.L37:
 314:Drivers/STM32F2xx_HAL_Driver/Src/stm32f2xx_hal_flash.c ****   {
 485              		.loc 1 314 0
 486 0034 2D4B     		ldr	r3, .L52
 487 0036 DB68     		ldr	r3, [r3, #12]
ARM GAS  /tmp/ccCndbbD.s 			page 23


 488 0038 13F0010F 		tst	r3, #1
 489 003c 13D0     		beq	.L41
 317:Drivers/STM32F2xx_HAL_Driver/Src/stm32f2xx_hal_flash.c ****     
 490              		.loc 1 317 0
 491 003e 2B4B     		ldr	r3, .L52
 492 0040 0122     		movs	r2, #1
 493 0042 DA60     		str	r2, [r3, #12]
 319:Drivers/STM32F2xx_HAL_Driver/Src/stm32f2xx_hal_flash.c ****     {
 494              		.loc 1 319 0
 495 0044 2A4B     		ldr	r3, .L52+4
 496 0046 1B78     		ldrb	r3, [r3]	@ zero_extendqisi2
 497 0048 DBB2     		uxtb	r3, r3
 498 004a 9342     		cmp	r3, r2
 499 004c 28D0     		beq	.L50
 352:Drivers/STM32F2xx_HAL_Driver/Src/stm32f2xx_hal_flash.c ****       {
 500              		.loc 1 352 0
 501 004e 284B     		ldr	r3, .L52+4
 502 0050 1B78     		ldrb	r3, [r3]	@ zero_extendqisi2
 503 0052 DBB2     		uxtb	r3, r3
 504 0054 022B     		cmp	r3, #2
 505 0056 41D0     		beq	.L51
 365:Drivers/STM32F2xx_HAL_Driver/Src/stm32f2xx_hal_flash.c ****       }
 506              		.loc 1 365 0
 507 0058 254B     		ldr	r3, .L52+4
 508 005a 5869     		ldr	r0, [r3, #20]
 509 005c FFF7FEFF 		bl	HAL_FLASH_EndOfOperationCallback
 510              	.LVL25:
 511              	.L45:
 367:Drivers/STM32F2xx_HAL_Driver/Src/stm32f2xx_hal_flash.c ****     }
 512              		.loc 1 367 0
 513 0060 234B     		ldr	r3, .L52+4
 514 0062 0022     		movs	r2, #0
 515 0064 1A70     		strb	r2, [r3]
 516              	.L41:
 371:Drivers/STM32F2xx_HAL_Driver/Src/stm32f2xx_hal_flash.c ****   {
 517              		.loc 1 371 0
 518 0066 224B     		ldr	r3, .L52+4
 519 0068 1B78     		ldrb	r3, [r3]	@ zero_extendqisi2
 520 006a 7BB9     		cbnz	r3, .L36
 374:Drivers/STM32F2xx_HAL_Driver/Src/stm32f2xx_hal_flash.c **** 
 521              		.loc 1 374 0
 522 006c 1F4B     		ldr	r3, .L52
 523 006e 1A69     		ldr	r2, [r3, #16]
 524 0070 22F0FF02 		bic	r2, r2, #255
 525 0074 1A61     		str	r2, [r3, #16]
 377:Drivers/STM32F2xx_HAL_Driver/Src/stm32f2xx_hal_flash.c ****     
 526              		.loc 1 377 0
 527 0076 1A69     		ldr	r2, [r3, #16]
 528 0078 22F08072 		bic	r2, r2, #16777216
 529 007c 1A61     		str	r2, [r3, #16]
 380:Drivers/STM32F2xx_HAL_Driver/Src/stm32f2xx_hal_flash.c ****     
 530              		.loc 1 380 0
 531 007e 1A69     		ldr	r2, [r3, #16]
 532 0080 22F00072 		bic	r2, r2, #33554432
 533 0084 1A61     		str	r2, [r3, #16]
 383:Drivers/STM32F2xx_HAL_Driver/Src/stm32f2xx_hal_flash.c ****   }
 534              		.loc 1 383 0
ARM GAS  /tmp/ccCndbbD.s 			page 24


 535 0086 1A4B     		ldr	r3, .L52+4
 536 0088 0022     		movs	r2, #0
 537 008a 1A76     		strb	r2, [r3, #24]
 538              	.L36:
 385:Drivers/STM32F2xx_HAL_Driver/Src/stm32f2xx_hal_flash.c **** 
 539              		.loc 1 385 0
 540 008c 10BD     		pop	{r4, pc}
 541              	.LVL26:
 542              	.L48:
 289:Drivers/STM32F2xx_HAL_Driver/Src/stm32f2xx_hal_flash.c ****       pFlash.Sector = 0xFFFFFFFFU;
 543              		.loc 1 289 0
 544 008e 184B     		ldr	r3, .L52+4
 545 0090 DC68     		ldr	r4, [r3, #12]
 546              	.LVL27:
 290:Drivers/STM32F2xx_HAL_Driver/Src/stm32f2xx_hal_flash.c ****     }
 547              		.loc 1 290 0
 548 0092 4FF0FF32 		mov	r2, #-1
 549 0096 DA60     		str	r2, [r3, #12]
 550 0098 C4E7     		b	.L39
 551              	.LVL28:
 552              	.L49:
 295:Drivers/STM32F2xx_HAL_Driver/Src/stm32f2xx_hal_flash.c ****     }
 553              		.loc 1 295 0
 554 009a 154B     		ldr	r3, .L52+4
 555 009c 1C69     		ldr	r4, [r3, #16]
 556              	.LVL29:
 557 009e C1E7     		b	.L39
 558              	.LVL30:
 559              	.L50:
 322:Drivers/STM32F2xx_HAL_Driver/Src/stm32f2xx_hal_flash.c ****       
 560              		.loc 1 322 0
 561 00a0 134B     		ldr	r3, .L52+4
 562 00a2 5A68     		ldr	r2, [r3, #4]
 563 00a4 013A     		subs	r2, r2, #1
 564 00a6 5A60     		str	r2, [r3, #4]
 325:Drivers/STM32F2xx_HAL_Driver/Src/stm32f2xx_hal_flash.c ****       {
 565              		.loc 1 325 0
 566 00a8 5B68     		ldr	r3, [r3, #4]
 567 00aa 5BB1     		cbz	r3, .L43
 327:Drivers/STM32F2xx_HAL_Driver/Src/stm32f2xx_hal_flash.c ****         /*Indicate user which sector has been erased*/
 568              		.loc 1 327 0
 569 00ac 104C     		ldr	r4, .L52+4
 570 00ae E068     		ldr	r0, [r4, #12]
 571              	.LVL31:
 329:Drivers/STM32F2xx_HAL_Driver/Src/stm32f2xx_hal_flash.c ****         
 572              		.loc 1 329 0
 573 00b0 FFF7FEFF 		bl	HAL_FLASH_EndOfOperationCallback
 574              	.LVL32:
 332:Drivers/STM32F2xx_HAL_Driver/Src/stm32f2xx_hal_flash.c ****         addresstmp = pFlash.Sector;
 575              		.loc 1 332 0
 576 00b4 E368     		ldr	r3, [r4, #12]
 577 00b6 0133     		adds	r3, r3, #1
 578 00b8 E360     		str	r3, [r4, #12]
 333:Drivers/STM32F2xx_HAL_Driver/Src/stm32f2xx_hal_flash.c ****         FLASH_Erase_Sector(addresstmp, pFlash.VoltageForErase);
 579              		.loc 1 333 0
 580 00ba E068     		ldr	r0, [r4, #12]
 581              	.LVL33:
ARM GAS  /tmp/ccCndbbD.s 			page 25


 334:Drivers/STM32F2xx_HAL_Driver/Src/stm32f2xx_hal_flash.c ****       }
 582              		.loc 1 334 0
 583 00bc 217A     		ldrb	r1, [r4, #8]	@ zero_extendqisi2
 584 00be FFF7FEFF 		bl	FLASH_Erase_Sector
 585              	.LVL34:
 586 00c2 D0E7     		b	.L41
 587              	.L43:
 588              	.LVL35:
 340:Drivers/STM32F2xx_HAL_Driver/Src/stm32f2xx_hal_flash.c ****         pFlash.ProcedureOnGoing = FLASH_PROC_NONE;
 589              		.loc 1 340 0
 590 00c4 0A4B     		ldr	r3, .L52+4
 591 00c6 4FF0FF34 		mov	r4, #-1
 592 00ca DC60     		str	r4, [r3, #12]
 341:Drivers/STM32F2xx_HAL_Driver/Src/stm32f2xx_hal_flash.c ****         
 593              		.loc 1 341 0
 594 00cc 0022     		movs	r2, #0
 595 00ce 1A70     		strb	r2, [r3]
 344:Drivers/STM32F2xx_HAL_Driver/Src/stm32f2xx_hal_flash.c ****                 
 596              		.loc 1 344 0
 597 00d0 FFF7FEFF 		bl	FLASH_FlushCaches
 598              	.LVL36:
 347:Drivers/STM32F2xx_HAL_Driver/Src/stm32f2xx_hal_flash.c ****       }
 599              		.loc 1 347 0
 600 00d4 2046     		mov	r0, r4
 601 00d6 FFF7FEFF 		bl	HAL_FLASH_EndOfOperationCallback
 602              	.LVL37:
 603 00da C4E7     		b	.L41
 604              	.LVL38:
 605              	.L51:
 356:Drivers/STM32F2xx_HAL_Driver/Src/stm32f2xx_hal_flash.c **** 
 606              		.loc 1 356 0
 607 00dc FFF7FEFF 		bl	FLASH_FlushCaches
 608              	.LVL39:
 359:Drivers/STM32F2xx_HAL_Driver/Src/stm32f2xx_hal_flash.c ****       }
 609              		.loc 1 359 0
 610 00e0 034B     		ldr	r3, .L52+4
 611 00e2 1869     		ldr	r0, [r3, #16]
 612 00e4 FFF7FEFF 		bl	HAL_FLASH_EndOfOperationCallback
 613              	.LVL40:
 614 00e8 BAE7     		b	.L45
 615              	.L53:
 616 00ea 00BF     		.align	2
 617              	.L52:
 618 00ec 003C0240 		.word	1073888256
 619 00f0 00000000 		.word	pFlash
 620              		.cfi_endproc
 621              	.LFE68:
 623              		.section	.text.HAL_FLASH_Unlock,"ax",%progbits
 624              		.align	1
 625              		.global	HAL_FLASH_Unlock
 626              		.syntax unified
 627              		.thumb
 628              		.thumb_func
 629              		.fpu softvfp
 631              	HAL_FLASH_Unlock:
 632              	.LFB71:
 446:Drivers/STM32F2xx_HAL_Driver/Src/stm32f2xx_hal_flash.c ****   if((FLASH->CR & FLASH_CR_LOCK) != RESET)
ARM GAS  /tmp/ccCndbbD.s 			page 26


 633              		.loc 1 446 0
 634              		.cfi_startproc
 635              		@ args = 0, pretend = 0, frame = 0
 636              		@ frame_needed = 0, uses_anonymous_args = 0
 637              		@ link register save eliminated.
 447:Drivers/STM32F2xx_HAL_Driver/Src/stm32f2xx_hal_flash.c ****   {
 638              		.loc 1 447 0
 639 0000 064B     		ldr	r3, .L58
 640 0002 1B69     		ldr	r3, [r3, #16]
 641 0004 002B     		cmp	r3, #0
 642 0006 01DB     		blt	.L57
 455:Drivers/STM32F2xx_HAL_Driver/Src/stm32f2xx_hal_flash.c ****   }
 643              		.loc 1 455 0
 644 0008 0120     		movs	r0, #1
 459:Drivers/STM32F2xx_HAL_Driver/Src/stm32f2xx_hal_flash.c **** 
 645              		.loc 1 459 0
 646 000a 7047     		bx	lr
 647              	.L57:
 450:Drivers/STM32F2xx_HAL_Driver/Src/stm32f2xx_hal_flash.c ****     FLASH->KEYR = FLASH_KEY2;
 648              		.loc 1 450 0
 649 000c 034B     		ldr	r3, .L58
 650 000e 044A     		ldr	r2, .L58+4
 651 0010 5A60     		str	r2, [r3, #4]
 451:Drivers/STM32F2xx_HAL_Driver/Src/stm32f2xx_hal_flash.c ****   }
 652              		.loc 1 451 0
 653 0012 02F18832 		add	r2, r2, #-2004318072
 654 0016 5A60     		str	r2, [r3, #4]
 458:Drivers/STM32F2xx_HAL_Driver/Src/stm32f2xx_hal_flash.c **** }
 655              		.loc 1 458 0
 656 0018 0020     		movs	r0, #0
 657 001a 7047     		bx	lr
 658              	.L59:
 659              		.align	2
 660              	.L58:
 661 001c 003C0240 		.word	1073888256
 662 0020 23016745 		.word	1164378403
 663              		.cfi_endproc
 664              	.LFE71:
 666              		.section	.text.HAL_FLASH_Lock,"ax",%progbits
 667              		.align	1
 668              		.global	HAL_FLASH_Lock
 669              		.syntax unified
 670              		.thumb
 671              		.thumb_func
 672              		.fpu softvfp
 674              	HAL_FLASH_Lock:
 675              	.LFB72:
 466:Drivers/STM32F2xx_HAL_Driver/Src/stm32f2xx_hal_flash.c ****   /* Set the LOCK Bit to lock the FLASH Registers access */
 676              		.loc 1 466 0
 677              		.cfi_startproc
 678              		@ args = 0, pretend = 0, frame = 0
 679              		@ frame_needed = 0, uses_anonymous_args = 0
 680              		@ link register save eliminated.
 468:Drivers/STM32F2xx_HAL_Driver/Src/stm32f2xx_hal_flash.c ****   
 681              		.loc 1 468 0
 682 0000 034A     		ldr	r2, .L61
 683 0002 1369     		ldr	r3, [r2, #16]
ARM GAS  /tmp/ccCndbbD.s 			page 27


 684 0004 43F00043 		orr	r3, r3, #-2147483648
 685 0008 1361     		str	r3, [r2, #16]
 471:Drivers/STM32F2xx_HAL_Driver/Src/stm32f2xx_hal_flash.c **** 
 686              		.loc 1 471 0
 687 000a 0020     		movs	r0, #0
 688 000c 7047     		bx	lr
 689              	.L62:
 690 000e 00BF     		.align	2
 691              	.L61:
 692 0010 003C0240 		.word	1073888256
 693              		.cfi_endproc
 694              	.LFE72:
 696              		.section	.text.HAL_FLASH_OB_Unlock,"ax",%progbits
 697              		.align	1
 698              		.global	HAL_FLASH_OB_Unlock
 699              		.syntax unified
 700              		.thumb
 701              		.thumb_func
 702              		.fpu softvfp
 704              	HAL_FLASH_OB_Unlock:
 705              	.LFB73:
 478:Drivers/STM32F2xx_HAL_Driver/Src/stm32f2xx_hal_flash.c ****   if((FLASH->OPTCR & FLASH_OPTCR_OPTLOCK) != RESET)
 706              		.loc 1 478 0
 707              		.cfi_startproc
 708              		@ args = 0, pretend = 0, frame = 0
 709              		@ frame_needed = 0, uses_anonymous_args = 0
 710              		@ link register save eliminated.
 479:Drivers/STM32F2xx_HAL_Driver/Src/stm32f2xx_hal_flash.c ****   {
 711              		.loc 1 479 0
 712 0000 074B     		ldr	r3, .L66
 713 0002 5B69     		ldr	r3, [r3, #20]
 714 0004 13F0010F 		tst	r3, #1
 715 0008 07D0     		beq	.L65
 482:Drivers/STM32F2xx_HAL_Driver/Src/stm32f2xx_hal_flash.c ****     FLASH->OPTKEYR = FLASH_OPT_KEY2;
 716              		.loc 1 482 0
 717 000a 054B     		ldr	r3, .L66
 718 000c 054A     		ldr	r2, .L66+4
 719 000e 9A60     		str	r2, [r3, #8]
 483:Drivers/STM32F2xx_HAL_Driver/Src/stm32f2xx_hal_flash.c ****   }
 720              		.loc 1 483 0
 721 0010 02F14432 		add	r2, r2, #1145324612
 722 0014 9A60     		str	r2, [r3, #8]
 490:Drivers/STM32F2xx_HAL_Driver/Src/stm32f2xx_hal_flash.c **** }
 723              		.loc 1 490 0
 724 0016 0020     		movs	r0, #0
 725 0018 7047     		bx	lr
 726              	.L65:
 487:Drivers/STM32F2xx_HAL_Driver/Src/stm32f2xx_hal_flash.c ****   }  
 727              		.loc 1 487 0
 728 001a 0120     		movs	r0, #1
 491:Drivers/STM32F2xx_HAL_Driver/Src/stm32f2xx_hal_flash.c **** 
 729              		.loc 1 491 0
 730 001c 7047     		bx	lr
 731              	.L67:
 732 001e 00BF     		.align	2
 733              	.L66:
 734 0020 003C0240 		.word	1073888256
ARM GAS  /tmp/ccCndbbD.s 			page 28


 735 0024 3B2A1908 		.word	135866939
 736              		.cfi_endproc
 737              	.LFE73:
 739              		.section	.text.HAL_FLASH_OB_Lock,"ax",%progbits
 740              		.align	1
 741              		.global	HAL_FLASH_OB_Lock
 742              		.syntax unified
 743              		.thumb
 744              		.thumb_func
 745              		.fpu softvfp
 747              	HAL_FLASH_OB_Lock:
 748              	.LFB74:
 498:Drivers/STM32F2xx_HAL_Driver/Src/stm32f2xx_hal_flash.c ****   /* Set the OPTLOCK Bit to lock the FLASH Option Byte Registers access */
 749              		.loc 1 498 0
 750              		.cfi_startproc
 751              		@ args = 0, pretend = 0, frame = 0
 752              		@ frame_needed = 0, uses_anonymous_args = 0
 753              		@ link register save eliminated.
 500:Drivers/STM32F2xx_HAL_Driver/Src/stm32f2xx_hal_flash.c ****   
 754              		.loc 1 500 0
 755 0000 034A     		ldr	r2, .L69
 756 0002 5369     		ldr	r3, [r2, #20]
 757 0004 43F00103 		orr	r3, r3, #1
 758 0008 5361     		str	r3, [r2, #20]
 503:Drivers/STM32F2xx_HAL_Driver/Src/stm32f2xx_hal_flash.c **** 
 759              		.loc 1 503 0
 760 000a 0020     		movs	r0, #0
 761 000c 7047     		bx	lr
 762              	.L70:
 763 000e 00BF     		.align	2
 764              	.L69:
 765 0010 003C0240 		.word	1073888256
 766              		.cfi_endproc
 767              	.LFE74:
 769              		.section	.text.HAL_FLASH_GetError,"ax",%progbits
 770              		.align	1
 771              		.global	HAL_FLASH_GetError
 772              		.syntax unified
 773              		.thumb
 774              		.thumb_func
 775              		.fpu softvfp
 777              	HAL_FLASH_GetError:
 778              	.LFB76:
 547:Drivers/STM32F2xx_HAL_Driver/Src/stm32f2xx_hal_flash.c ****    return pFlash.ErrorCode;
 779              		.loc 1 547 0
 780              		.cfi_startproc
 781              		@ args = 0, pretend = 0, frame = 0
 782              		@ frame_needed = 0, uses_anonymous_args = 0
 783              		@ link register save eliminated.
 548:Drivers/STM32F2xx_HAL_Driver/Src/stm32f2xx_hal_flash.c **** }  
 784              		.loc 1 548 0
 785 0000 014B     		ldr	r3, .L72
 786 0002 D869     		ldr	r0, [r3, #28]
 549:Drivers/STM32F2xx_HAL_Driver/Src/stm32f2xx_hal_flash.c ****   
 787              		.loc 1 549 0
 788 0004 7047     		bx	lr
 789              	.L73:
ARM GAS  /tmp/ccCndbbD.s 			page 29


 790 0006 00BF     		.align	2
 791              	.L72:
 792 0008 00000000 		.word	pFlash
 793              		.cfi_endproc
 794              	.LFE76:
 796              		.section	.text.FLASH_WaitForLastOperation,"ax",%progbits
 797              		.align	1
 798              		.global	FLASH_WaitForLastOperation
 799              		.syntax unified
 800              		.thumb
 801              		.thumb_func
 802              		.fpu softvfp
 804              	FLASH_WaitForLastOperation:
 805              	.LFB77:
 561:Drivers/STM32F2xx_HAL_Driver/Src/stm32f2xx_hal_flash.c ****   uint32_t tickstart = 0U;
 806              		.loc 1 561 0
 807              		.cfi_startproc
 808              		@ args = 0, pretend = 0, frame = 0
 809              		@ frame_needed = 0, uses_anonymous_args = 0
 810              	.LVL41:
 811 0000 38B5     		push	{r3, r4, r5, lr}
 812              	.LCFI4:
 813              		.cfi_def_cfa_offset 16
 814              		.cfi_offset 3, -16
 815              		.cfi_offset 4, -12
 816              		.cfi_offset 5, -8
 817              		.cfi_offset 14, -4
 818 0002 0446     		mov	r4, r0
 819              	.LVL42:
 565:Drivers/STM32F2xx_HAL_Driver/Src/stm32f2xx_hal_flash.c ****   
 820              		.loc 1 565 0
 821 0004 154B     		ldr	r3, .L86
 822 0006 0022     		movs	r2, #0
 823 0008 DA61     		str	r2, [r3, #28]
 571:Drivers/STM32F2xx_HAL_Driver/Src/stm32f2xx_hal_flash.c **** 
 824              		.loc 1 571 0
 825 000a FFF7FEFF 		bl	HAL_GetTick
 826              	.LVL43:
 827 000e 0546     		mov	r5, r0
 828              	.LVL44:
 829              	.L76:
 573:Drivers/STM32F2xx_HAL_Driver/Src/stm32f2xx_hal_flash.c ****   { 
 830              		.loc 1 573 0
 831 0010 134B     		ldr	r3, .L86+4
 832 0012 DB68     		ldr	r3, [r3, #12]
 833 0014 13F4803F 		tst	r3, #65536
 834 0018 0AD0     		beq	.L84
 575:Drivers/STM32F2xx_HAL_Driver/Src/stm32f2xx_hal_flash.c ****     {
 835              		.loc 1 575 0
 836 001a B4F1FF3F 		cmp	r4, #-1
 837 001e F7D0     		beq	.L76
 577:Drivers/STM32F2xx_HAL_Driver/Src/stm32f2xx_hal_flash.c ****       {
 838              		.loc 1 577 0
 839 0020 CCB1     		cbz	r4, .L80
 577:Drivers/STM32F2xx_HAL_Driver/Src/stm32f2xx_hal_flash.c ****       {
 840              		.loc 1 577 0 is_stmt 0 discriminator 1
 841 0022 FFF7FEFF 		bl	HAL_GetTick
ARM GAS  /tmp/ccCndbbD.s 			page 30


 842              	.LVL45:
 843 0026 401B     		subs	r0, r0, r5
 844 0028 A042     		cmp	r0, r4
 845 002a F1D9     		bls	.L76
 579:Drivers/STM32F2xx_HAL_Driver/Src/stm32f2xx_hal_flash.c ****       }
 846              		.loc 1 579 0 is_stmt 1
 847 002c 0320     		movs	r0, #3
 848 002e 0DE0     		b	.L77
 849              	.L84:
 585:Drivers/STM32F2xx_HAL_Driver/Src/stm32f2xx_hal_flash.c ****   {
 850              		.loc 1 585 0
 851 0030 0B4B     		ldr	r3, .L86+4
 852 0032 DB68     		ldr	r3, [r3, #12]
 853 0034 13F0010F 		tst	r3, #1
 854 0038 02D0     		beq	.L79
 588:Drivers/STM32F2xx_HAL_Driver/Src/stm32f2xx_hal_flash.c ****   }
 855              		.loc 1 588 0
 856 003a 094B     		ldr	r3, .L86+4
 857 003c 0122     		movs	r2, #1
 858 003e DA60     		str	r2, [r3, #12]
 859              	.L79:
 591:Drivers/STM32F2xx_HAL_Driver/Src/stm32f2xx_hal_flash.c ****                            FLASH_FLAG_PGPERR | FLASH_FLAG_PGSERR)) != RESET)
 860              		.loc 1 591 0
 861 0040 074B     		ldr	r3, .L86+4
 862 0042 DB68     		ldr	r3, [r3, #12]
 863 0044 13F0F20F 		tst	r3, #242
 864 0048 01D1     		bne	.L85
 600:Drivers/STM32F2xx_HAL_Driver/Src/stm32f2xx_hal_flash.c ****   
 865              		.loc 1 600 0
 866 004a 0020     		movs	r0, #0
 867              	.L77:
 602:Drivers/STM32F2xx_HAL_Driver/Src/stm32f2xx_hal_flash.c **** 
 868              		.loc 1 602 0
 869 004c 38BD     		pop	{r3, r4, r5, pc}
 870              	.LVL46:
 871              	.L85:
 595:Drivers/STM32F2xx_HAL_Driver/Src/stm32f2xx_hal_flash.c ****     return HAL_ERROR;
 872              		.loc 1 595 0
 873 004e FFF7FEFF 		bl	FLASH_SetErrorCode
 874              	.LVL47:
 596:Drivers/STM32F2xx_HAL_Driver/Src/stm32f2xx_hal_flash.c ****   }
 875              		.loc 1 596 0
 876 0052 0120     		movs	r0, #1
 877 0054 FAE7     		b	.L77
 878              	.L80:
 579:Drivers/STM32F2xx_HAL_Driver/Src/stm32f2xx_hal_flash.c ****       }
 879              		.loc 1 579 0
 880 0056 0320     		movs	r0, #3
 881 0058 F8E7     		b	.L77
 882              	.L87:
 883 005a 00BF     		.align	2
 884              	.L86:
 885 005c 00000000 		.word	pFlash
 886 0060 003C0240 		.word	1073888256
 887              		.cfi_endproc
 888              	.LFE77:
 890              		.section	.text.HAL_FLASH_Program,"ax",%progbits
ARM GAS  /tmp/ccCndbbD.s 			page 31


 891              		.align	1
 892              		.global	HAL_FLASH_Program
 893              		.syntax unified
 894              		.thumb
 895              		.thumb_func
 896              		.fpu softvfp
 898              	HAL_FLASH_Program:
 899              	.LFB66:
 174:Drivers/STM32F2xx_HAL_Driver/Src/stm32f2xx_hal_flash.c ****   HAL_StatusTypeDef status = HAL_ERROR;
 900              		.loc 1 174 0
 901              		.cfi_startproc
 902              		@ args = 0, pretend = 0, frame = 0
 903              		@ frame_needed = 0, uses_anonymous_args = 0
 904              	.LVL48:
 905 0000 F8B5     		push	{r3, r4, r5, r6, r7, lr}
 906              	.LCFI5:
 907              		.cfi_def_cfa_offset 24
 908              		.cfi_offset 3, -24
 909              		.cfi_offset 4, -20
 910              		.cfi_offset 5, -16
 911              		.cfi_offset 6, -12
 912              		.cfi_offset 7, -8
 913              		.cfi_offset 14, -4
 914              	.LVL49:
 178:Drivers/STM32F2xx_HAL_Driver/Src/stm32f2xx_hal_flash.c ****   
 915              		.loc 1 178 0
 916 0002 1D4C     		ldr	r4, .L100
 917 0004 247E     		ldrb	r4, [r4, #24]	@ zero_extendqisi2
 918 0006 012C     		cmp	r4, #1
 919 0008 34D0     		beq	.L95
 920 000a 1F46     		mov	r7, r3
 921 000c 1646     		mov	r6, r2
 922 000e 0D46     		mov	r5, r1
 923 0010 0446     		mov	r4, r0
 178:Drivers/STM32F2xx_HAL_Driver/Src/stm32f2xx_hal_flash.c ****   
 924              		.loc 1 178 0 is_stmt 0 discriminator 2
 925 0012 194B     		ldr	r3, .L100
 926 0014 0122     		movs	r2, #1
 927              	.LVL50:
 928 0016 1A76     		strb	r2, [r3, #24]
 184:Drivers/STM32F2xx_HAL_Driver/Src/stm32f2xx_hal_flash.c ****   
 929              		.loc 1 184 0 is_stmt 1 discriminator 2
 930 0018 4CF25030 		movw	r0, #50000
 931              	.LVL51:
 932 001c FFF7FEFF 		bl	FLASH_WaitForLastOperation
 933              	.LVL52:
 186:Drivers/STM32F2xx_HAL_Driver/Src/stm32f2xx_hal_flash.c ****   {
 934              		.loc 1 186 0 discriminator 2
 935 0020 0146     		mov	r1, r0
 936 0022 98B9     		cbnz	r0, .L90
 188:Drivers/STM32F2xx_HAL_Driver/Src/stm32f2xx_hal_flash.c ****     {
 937              		.loc 1 188 0
 938 0024 BCB1     		cbz	r4, .L97
 193:Drivers/STM32F2xx_HAL_Driver/Src/stm32f2xx_hal_flash.c ****     {
 939              		.loc 1 193 0
 940 0026 012C     		cmp	r4, #1
 941 0028 1AD0     		beq	.L98
ARM GAS  /tmp/ccCndbbD.s 			page 32


 198:Drivers/STM32F2xx_HAL_Driver/Src/stm32f2xx_hal_flash.c ****     {
 942              		.loc 1 198 0
 943 002a 022C     		cmp	r4, #2
 944 002c 1DD0     		beq	.L99
 206:Drivers/STM32F2xx_HAL_Driver/Src/stm32f2xx_hal_flash.c ****     }
 945              		.loc 1 206 0
 946 002e 3246     		mov	r2, r6
 947 0030 3B46     		mov	r3, r7
 948 0032 2846     		mov	r0, r5
 949              	.LVL53:
 950 0034 FFF7FEFF 		bl	FLASH_Program_DoubleWord
 951              	.LVL54:
 952              	.L92:
 210:Drivers/STM32F2xx_HAL_Driver/Src/stm32f2xx_hal_flash.c ****     
 953              		.loc 1 210 0
 954 0038 4CF25030 		movw	r0, #50000
 955 003c FFF7FEFF 		bl	FLASH_WaitForLastOperation
 956              	.LVL55:
 957 0040 0146     		mov	r1, r0
 958              	.LVL56:
 213:Drivers/STM32F2xx_HAL_Driver/Src/stm32f2xx_hal_flash.c ****   }
 959              		.loc 1 213 0
 960 0042 0E4A     		ldr	r2, .L100+4
 961 0044 1369     		ldr	r3, [r2, #16]
 962 0046 23F00103 		bic	r3, r3, #1
 963 004a 1361     		str	r3, [r2, #16]
 964              	.LVL57:
 965              	.L90:
 217:Drivers/STM32F2xx_HAL_Driver/Src/stm32f2xx_hal_flash.c ****   
 966              		.loc 1 217 0
 967 004c 0A4B     		ldr	r3, .L100
 968 004e 0022     		movs	r2, #0
 969 0050 1A76     		strb	r2, [r3, #24]
 970              	.LVL58:
 971              	.L89:
 220:Drivers/STM32F2xx_HAL_Driver/Src/stm32f2xx_hal_flash.c **** 
 972              		.loc 1 220 0
 973 0052 0846     		mov	r0, r1
 974 0054 F8BD     		pop	{r3, r4, r5, r6, r7, pc}
 975              	.LVL59:
 976              	.L97:
 191:Drivers/STM32F2xx_HAL_Driver/Src/stm32f2xx_hal_flash.c ****     }
 977              		.loc 1 191 0
 978 0056 F1B2     		uxtb	r1, r6
 979 0058 2846     		mov	r0, r5
 980              	.LVL60:
 981 005a FFF7FEFF 		bl	FLASH_Program_Byte
 982              	.LVL61:
 983 005e EBE7     		b	.L92
 984              	.LVL62:
 985              	.L98:
 196:Drivers/STM32F2xx_HAL_Driver/Src/stm32f2xx_hal_flash.c ****     }
 986              		.loc 1 196 0
 987 0060 B1B2     		uxth	r1, r6
 988 0062 2846     		mov	r0, r5
 989              	.LVL63:
 990 0064 FFF7FEFF 		bl	FLASH_Program_HalfWord
ARM GAS  /tmp/ccCndbbD.s 			page 33


 991              	.LVL64:
 992 0068 E6E7     		b	.L92
 993              	.LVL65:
 994              	.L99:
 201:Drivers/STM32F2xx_HAL_Driver/Src/stm32f2xx_hal_flash.c ****     }
 995              		.loc 1 201 0
 996 006a 3146     		mov	r1, r6
 997 006c 2846     		mov	r0, r5
 998              	.LVL66:
 999 006e FFF7FEFF 		bl	FLASH_Program_Word
 1000              	.LVL67:
 1001 0072 E1E7     		b	.L92
 1002              	.LVL68:
 1003              	.L95:
 178:Drivers/STM32F2xx_HAL_Driver/Src/stm32f2xx_hal_flash.c ****   
 1004              		.loc 1 178 0
 1005 0074 0221     		movs	r1, #2
 1006              	.LVL69:
 1007 0076 ECE7     		b	.L89
 1008              	.L101:
 1009              		.align	2
 1010              	.L100:
 1011 0078 00000000 		.word	pFlash
 1012 007c 003C0240 		.word	1073888256
 1013              		.cfi_endproc
 1014              	.LFE66:
 1016              		.section	.text.HAL_FLASH_OB_Launch,"ax",%progbits
 1017              		.align	1
 1018              		.global	HAL_FLASH_OB_Launch
 1019              		.syntax unified
 1020              		.thumb
 1021              		.thumb_func
 1022              		.fpu softvfp
 1024              	HAL_FLASH_OB_Launch:
 1025              	.LFB75:
 510:Drivers/STM32F2xx_HAL_Driver/Src/stm32f2xx_hal_flash.c ****   /* Set the OPTSTRT bit in OPTCR register */
 1026              		.loc 1 510 0
 1027              		.cfi_startproc
 1028              		@ args = 0, pretend = 0, frame = 0
 1029              		@ frame_needed = 0, uses_anonymous_args = 0
 1030 0000 08B5     		push	{r3, lr}
 1031              	.LCFI6:
 1032              		.cfi_def_cfa_offset 8
 1033              		.cfi_offset 3, -8
 1034              		.cfi_offset 14, -4
 512:Drivers/STM32F2xx_HAL_Driver/Src/stm32f2xx_hal_flash.c **** 
 1035              		.loc 1 512 0
 1036 0002 054A     		ldr	r2, .L104
 1037 0004 1378     		ldrb	r3, [r2]	@ zero_extendqisi2
 1038 0006 43F00203 		orr	r3, r3, #2
 1039 000a 1370     		strb	r3, [r2]
 515:Drivers/STM32F2xx_HAL_Driver/Src/stm32f2xx_hal_flash.c **** }
 1040              		.loc 1 515 0
 1041 000c 4CF25030 		movw	r0, #50000
 1042 0010 FFF7FEFF 		bl	FLASH_WaitForLastOperation
 1043              	.LVL70:
 516:Drivers/STM32F2xx_HAL_Driver/Src/stm32f2xx_hal_flash.c **** 
ARM GAS  /tmp/ccCndbbD.s 			page 34


 1044              		.loc 1 516 0
 1045 0014 08BD     		pop	{r3, pc}
 1046              	.L105:
 1047 0016 00BF     		.align	2
 1048              	.L104:
 1049 0018 143C0240 		.word	1073888276
 1050              		.cfi_endproc
 1051              	.LFE75:
 1053              		.comm	pFlash,32,4
 1054              		.text
 1055              	.Letext0:
 1056              		.file 2 "/home/nikita/software/gcc-arm-none-eabi-7-2018-q2-update/arm-none-eabi/include/machine/_d
 1057              		.file 3 "/home/nikita/software/gcc-arm-none-eabi-7-2018-q2-update/arm-none-eabi/include/sys/_stdin
 1058              		.file 4 "Drivers/CMSIS/Include/core_cm3.h"
 1059              		.file 5 "Drivers/CMSIS/Device/ST/STM32F2xx/Include/system_stm32f2xx.h"
 1060              		.file 6 "Drivers/CMSIS/Device/ST/STM32F2xx/Include/stm32f205xx.h"
 1061              		.file 7 "/home/nikita/software/gcc-arm-none-eabi-7-2018-q2-update/arm-none-eabi/include/sys/lock.h
 1062              		.file 8 "/home/nikita/software/gcc-arm-none-eabi-7-2018-q2-update/arm-none-eabi/include/sys/_types
 1063              		.file 9 "/home/nikita/software/gcc-arm-none-eabi-7-2018-q2-update/lib/gcc/arm-none-eabi/7.3.1/incl
 1064              		.file 10 "/home/nikita/software/gcc-arm-none-eabi-7-2018-q2-update/arm-none-eabi/include/sys/reent
 1065              		.file 11 "Drivers/CMSIS/Device/ST/STM32F2xx/Include/stm32f2xx.h"
 1066              		.file 12 "Drivers/STM32F2xx_HAL_Driver/Inc/stm32f2xx_hal_def.h"
 1067              		.file 13 "Drivers/STM32F2xx_HAL_Driver/Inc/stm32f2xx_hal_flash.h"
 1068              		.file 14 "Drivers/STM32F2xx_HAL_Driver/Inc/stm32f2xx_hal.h"
 1069              		.file 15 "Drivers/STM32F2xx_HAL_Driver/Inc/stm32f2xx_hal_flash_ex.h"
ARM GAS  /tmp/ccCndbbD.s 			page 35

